---
triple:          'arm64-apple-darwin'
binary-path:     btc
relocations:
  - { offsetInCU: 0x3B, offset: 0x3B, size: 0x8, addend: 0x0, symName: _.str, symObjAddr: 0x2A20, symBinAddr: 0x1000137A0, symSize: 0x0 }
  - { offsetInCU: 0x2DF8, offset: 0x2DF8, size: 0x8, addend: 0x0, symName: __ZNSt3__124__put_character_sequenceB7v160006IcNS_11char_traitsIcEEEERNS_13basic_ostreamIT_T0_EES7_PKS4_m, symObjAddr: 0x5E4, symBinAddr: 0x100002E9C, symSize: 0x74C }
  - { offsetInCU: 0x546C, offset: 0x546C, size: 0x8, addend: 0x0, symName: __ZNSt3__1lsB7v160006INS_11char_traitsIcEEEERNS_13basic_ostreamIcT_EES6_PKc, symObjAddr: 0x45C, symBinAddr: 0x100002D14, symSize: 0x48 }
  - { offsetInCU: 0x54B2, offset: 0x54B2, size: 0x8, addend: 0x0, symName: __ZNSt3__14endlB7v160006IcNS_11char_traitsIcEEEERNS_13basic_ostreamIT_T0_EES7_, symObjAddr: 0x4D0, symBinAddr: 0x100002D88, symSize: 0xD4 }
  - { offsetInCU: 0x54F2, offset: 0x54F2, size: 0x8, addend: 0x0, symName: __ZNSt3__116__pad_and_outputB7v160006IcNS_11char_traitsIcEEEENS_19ostreambuf_iteratorIT_T0_EES6_PKS4_S8_S8_RNS_8ios_baseES4_, symObjAddr: 0xE0C, symBinAddr: 0x1000036C4, symSize: 0x774 }
  - { offsetInCU: 0x55CF, offset: 0x55CF, size: 0x8, addend: 0x0, symName: __ZNSt3__119__debug_db_insert_cB7v160006INS_12basic_stringIcNS_11char_traitsIcEENS_9allocatorIcEEEEEEvPT_, symObjAddr: 0x1D00, symBinAddr: 0x1000045B8, symSize: 0x10 }
  - { offsetInCU: 0x5600, offset: 0x5600, size: 0x8, addend: 0x0, symName: __ZNSt3__112__to_addressB7v160006IKcEEPT_S3_, symObjAddr: 0x1DCC, symBinAddr: 0x100004684, symSize: 0x14 }
  - { offsetInCU: 0x5635, offset: 0x5635, size: 0x8, addend: 0x0, symName: __ZNSt3__130__libcpp_is_constant_evaluatedB7v160006Ev, symObjAddr: 0x1FA8, symBinAddr: 0x100004860, symSize: 0xC }
  - { offsetInCU: 0x5685, offset: 0x5685, size: 0x8, addend: 0x0, symName: __ZNSt3__19use_facetB7v160006INS_5ctypeIcEEEERKT_RKNS_6localeE, symObjAddr: 0x2490, symBinAddr: 0x100004D48, symSize: 0x2C }
  - { offsetInCU: 0x5B54, offset: 0x5B54, size: 0x8, addend: 0x0, symName: __ZNSt3__118__constexpr_strlenB7v160006EPKc, symObjAddr: 0x2614, symBinAddr: 0x100004ECC, symSize: 0x24 }
  - { offsetInCU: 0x99AB, offset: 0x99AB, size: 0x8, addend: 0x0, symName: _main, symObjAddr: 0x0, symBinAddr: 0x1000028B8, symSize: 0x45C }
  - { offsetInCU: 0x99F5, offset: 0x99F5, size: 0x8, addend: 0x0, symName: __ZNSt3__113basic_ostreamIcNS_11char_traitsIcEEElsB7v160006EPFRS3_S4_E, symObjAddr: 0x4A4, symBinAddr: 0x100002D5C, symSize: 0x2C }
  - { offsetInCU: 0x9A2C, offset: 0x9A2C, size: 0x8, addend: 0x0, symName: __ZNSt3__112basic_stringIcNS_11char_traitsIcEENS_9allocatorIcEEEC1B7v160006IDnEEPKc, symObjAddr: 0x5A4, symBinAddr: 0x100002E5C, symSize: 0x34 }
  - { offsetInCU: 0x9A68, offset: 0x9A68, size: 0x8, addend: 0x0, symName: __ZNSt3__111char_traitsIcE6lengthEPKc, symObjAddr: 0xD30, symBinAddr: 0x1000035E8, symSize: 0x54 }
  - { offsetInCU: 0x9AA8, offset: 0x9AA8, size: 0x8, addend: 0x0, symName: __ZNKSt3__113basic_ostreamIcNS_11char_traitsIcEEE6sentrycvbB7v160006Ev, symObjAddr: 0xD84, symBinAddr: 0x10000363C, symSize: 0x88 }
  - { offsetInCU: 0x9ACC, offset: 0x9ACC, size: 0x8, addend: 0x0, symName: __ZNSt3__119ostreambuf_iteratorIcNS_11char_traitsIcEEEC1B7v160006ERNS_13basic_ostreamIcS2_EE, symObjAddr: 0x1580, symBinAddr: 0x100003E38, symSize: 0x34 }
  - { offsetInCU: 0x9B02, offset: 0x9B02, size: 0x8, addend: 0x0, symName: __ZNKSt3__18ios_base5flagsB7v160006Ev, symObjAddr: 0x15B4, symBinAddr: 0x100003E6C, symSize: 0x8C }
  - { offsetInCU: 0x9B28, offset: 0x9B28, size: 0x8, addend: 0x0, symName: __ZNKSt3__19basic_iosIcNS_11char_traitsIcEEE4fillB7v160006Ev, symObjAddr: 0x1640, symBinAddr: 0x100003EF8, symSize: 0x198 }
  - { offsetInCU: 0x9B4E, offset: 0x9B4E, size: 0x8, addend: 0x0, symName: __ZNKSt3__119ostreambuf_iteratorIcNS_11char_traitsIcEEE6failedB7v160006Ev, symObjAddr: 0x17D8, symBinAddr: 0x100004090, symSize: 0x6C }
  - { offsetInCU: 0x9B72, offset: 0x9B72, size: 0x8, addend: 0x0, symName: __ZNSt3__19basic_iosIcNS_11char_traitsIcEEE8setstateB7v160006Ej, symObjAddr: 0x1844, symBinAddr: 0x1000040FC, symSize: 0x2C }
  - { offsetInCU: 0x9BA5, offset: 0x9BA5, size: 0x8, addend: 0x0, symName: __ZNKSt3__18ios_base5widthB7v160006Ev, symObjAddr: 0x1870, symBinAddr: 0x100004128, symSize: 0x64 }
  - { offsetInCU: 0x9BCB, offset: 0x9BCB, size: 0x8, addend: 0x0, symName: __ZNSt3__115basic_streambufIcNS_11char_traitsIcEEE5sputnB7v160006EPKcl, symObjAddr: 0x18D4, symBinAddr: 0x10000418C, symSize: 0xC8 }
  - { offsetInCU: 0x9C0B, offset: 0x9C0B, size: 0x8, addend: 0x0, symName: __ZNSt3__112basic_stringIcNS_11char_traitsIcEENS_9allocatorIcEEEC1B7v160006Emc, symObjAddr: 0x199C, symBinAddr: 0x100004254, symSize: 0x3C }
  - { offsetInCU: 0x9C51, offset: 0x9C51, size: 0x8, addend: 0x0, symName: __ZNKSt3__112basic_stringIcNS_11char_traitsIcEENS_9allocatorIcEEE4dataB7v160006Ev, symObjAddr: 0x19D8, symBinAddr: 0x100004290, symSize: 0x28 }
  - { offsetInCU: 0x9C75, offset: 0x9C75, size: 0x8, addend: 0x0, symName: __ZNSt3__18ios_base5widthB7v160006El, symObjAddr: 0x1A00, symBinAddr: 0x1000042B8, symSize: 0xB8 }
  - { offsetInCU: 0x9CB9, offset: 0x9CB9, size: 0x8, addend: 0x0, symName: __ZNSt3__112basic_stringIcNS_11char_traitsIcEENS_9allocatorIcEEEC2B7v160006Emc, symObjAddr: 0x1AB8, symBinAddr: 0x100004370, symSize: 0x20C }
  - { offsetInCU: 0x9D07, offset: 0x9D07, size: 0x8, addend: 0x0, symName: __ZNSt3__117__compressed_pairINS_12basic_stringIcNS_11char_traitsIcEENS_9allocatorIcEEE5__repES5_EC1B7v160006INS_18__default_init_tagESA_EEOT_OT0_, symObjAddr: 0x1CC4, symBinAddr: 0x10000457C, symSize: 0x3C }
  - { offsetInCU: 0x9D5D, offset: 0x9D5D, size: 0x8, addend: 0x0, symName: __ZNSt3__117__compressed_pairINS_12basic_stringIcNS_11char_traitsIcEENS_9allocatorIcEEE5__repES5_EC2B7v160006INS_18__default_init_tagESA_EEOT_OT0_, symObjAddr: 0x1D10, symBinAddr: 0x1000045C8, symSize: 0x3C }
  - { offsetInCU: 0x9DB3, offset: 0x9DB3, size: 0x8, addend: 0x0, symName: __ZNSt3__122__compressed_pair_elemINS_12basic_stringIcNS_11char_traitsIcEENS_9allocatorIcEEE5__repELi0ELb0EEC2B7v160006ENS_18__default_init_tagE, symObjAddr: 0x1D4C, symBinAddr: 0x100004604, symSize: 0x14 }
  - { offsetInCU: 0x9DE5, offset: 0x9DE5, size: 0x8, addend: 0x0, symName: __ZNSt3__122__compressed_pair_elemINS_9allocatorIcEELi1ELb1EEC2B7v160006ENS_18__default_init_tagE, symObjAddr: 0x1D60, symBinAddr: 0x100004618, symSize: 0x2C }
  - { offsetInCU: 0x9E17, offset: 0x9E17, size: 0x8, addend: 0x0, symName: __ZNSt3__19allocatorIcEC2B7v160006Ev, symObjAddr: 0x1D8C, symBinAddr: 0x100004644, symSize: 0x2C }
  - { offsetInCU: 0x9E3F, offset: 0x9E3F, size: 0x8, addend: 0x0, symName: __ZNSt3__116__non_trivial_ifILb1ENS_9allocatorIcEEEC2B7v160006Ev, symObjAddr: 0x1DB8, symBinAddr: 0x100004670, symSize: 0x14 }
  - { offsetInCU: 0x9E67, offset: 0x9E67, size: 0x8, addend: 0x0, symName: __ZNKSt3__112basic_stringIcNS_11char_traitsIcEENS_9allocatorIcEEE13__get_pointerB7v160006Ev, symObjAddr: 0x1DE0, symBinAddr: 0x100004698, symSize: 0x54 }
  - { offsetInCU: 0x9E8B, offset: 0x9E8B, size: 0x8, addend: 0x0, symName: __ZNKSt3__112basic_stringIcNS_11char_traitsIcEENS_9allocatorIcEEE9__is_longB7v160006Ev, symObjAddr: 0x1E34, symBinAddr: 0x1000046EC, symSize: 0xE0 }
  - { offsetInCU: 0x9EAF, offset: 0x9EAF, size: 0x8, addend: 0x0, symName: __ZNKSt3__112basic_stringIcNS_11char_traitsIcEENS_9allocatorIcEEE18__get_long_pointerB7v160006Ev, symObjAddr: 0x1F14, symBinAddr: 0x1000047CC, symSize: 0x6C }
  - { offsetInCU: 0x9ED3, offset: 0x9ED3, size: 0x8, addend: 0x0, symName: __ZNKSt3__112basic_stringIcNS_11char_traitsIcEENS_9allocatorIcEEE19__get_short_pointerB7v160006Ev, symObjAddr: 0x1F80, symBinAddr: 0x100004838, symSize: 0x28 }
  - { offsetInCU: 0x9EF7, offset: 0x9EF7, size: 0x8, addend: 0x0, symName: __ZNKSt3__117__compressed_pairINS_12basic_stringIcNS_11char_traitsIcEENS_9allocatorIcEEE5__repES5_E5firstB7v160006Ev, symObjAddr: 0x1FB4, symBinAddr: 0x10000486C, symSize: 0x24 }
  - { offsetInCU: 0x9F1B, offset: 0x9F1B, size: 0x8, addend: 0x0, symName: __ZNKSt3__122__compressed_pair_elemINS_12basic_stringIcNS_11char_traitsIcEENS_9allocatorIcEEE5__repELi0ELb0EE5__getB7v160006Ev, symObjAddr: 0x1FD8, symBinAddr: 0x100004890, symSize: 0x14 }
  - { offsetInCU: 0x9F40, offset: 0x9F40, size: 0x8, addend: 0x0, symName: __ZNSt3__114pointer_traitsIPKcE10pointer_toB7v160006ERS1_, symObjAddr: 0x1FEC, symBinAddr: 0x1000048A4, symSize: 0x14 }
  - { offsetInCU: 0x9F62, offset: 0x9F62, size: 0x8, addend: 0x0, symName: __ZNSt3__119ostreambuf_iteratorIcNS_11char_traitsIcEEEC2B7v160006ERNS_13basic_ostreamIcS2_EE, symObjAddr: 0x2000, symBinAddr: 0x1000048B8, symSize: 0x120 }
  - { offsetInCU: 0x9F98, offset: 0x9F98, size: 0x8, addend: 0x0, symName: __ZNKSt3__19basic_iosIcNS_11char_traitsIcEEE5rdbufB7v160006Ev, symObjAddr: 0x2120, symBinAddr: 0x1000049D8, symSize: 0x24 }
  - { offsetInCU: 0x9FBE, offset: 0x9FBE, size: 0x8, addend: 0x0, symName: __ZNKSt3__18ios_base5rdbufB7v160006Ev, symObjAddr: 0x2144, symBinAddr: 0x1000049FC, symSize: 0x64 }
  - { offsetInCU: 0x9FE3, offset: 0x9FE3, size: 0x8, addend: 0x0, symName: __ZNSt3__111char_traitsIcE11eq_int_typeEii, symObjAddr: 0x21A8, symBinAddr: 0x100004A60, symSize: 0x28 }
  - { offsetInCU: 0xA014, offset: 0xA014, size: 0x8, addend: 0x0, symName: __ZNSt3__111char_traitsIcE3eofEv, symObjAddr: 0x21D0, symBinAddr: 0x100004A88, symSize: 0x8 }
  - { offsetInCU: 0xA027, offset: 0xA027, size: 0x8, addend: 0x0, symName: __ZNKSt3__19basic_iosIcNS_11char_traitsIcEEE5widenB7v160006Ec, symObjAddr: 0x21D8, symBinAddr: 0x100004A90, symSize: 0x2B8 }
  - { offsetInCU: 0xA095, offset: 0xA095, size: 0x8, addend: 0x0, symName: __ZNKSt3__15ctypeIcE5widenB7v160006Ec, symObjAddr: 0x24BC, symBinAddr: 0x100004D74, symSize: 0xBC }
  - { offsetInCU: 0xA0C8, offset: 0xA0C8, size: 0x8, addend: 0x0, symName: __ZNSt3__18ios_base8setstateB7v160006Ej, symObjAddr: 0x2578, symBinAddr: 0x100004E30, symSize: 0x9C }
  - { offsetInCU: 0xA0FD, offset: 0xA0FD, size: 0x8, addend: 0x0, symName: __ZNSt3__112basic_stringIcNS_11char_traitsIcEENS_9allocatorIcEEEC2B7v160006IDnEEPKc, symObjAddr: 0x2638, symBinAddr: 0x100004EF0, symSize: 0x218 }
  - { offsetInCU: 0x3B, offset: 0xA485, size: 0x8, addend: 0x0, symName: _.str, symObjAddr: 0x10200, symBinAddr: 0x100013800, symSize: 0x0 }
  - { offsetInCU: 0x6B, offset: 0xA4B5, size: 0x8, addend: 0x0, symName: _.str.1, symObjAddr: 0x10220, symBinAddr: 0x100013820, symSize: 0x0 }
  - { offsetInCU: 0x88, offset: 0xA4D2, size: 0x8, addend: 0x0, symName: _.str.2, symObjAddr: 0x10240, symBinAddr: 0x100013840, symSize: 0x0 }
  - { offsetInCU: 0xA5, offset: 0xA4EF, size: 0x8, addend: 0x0, symName: _.str.3, symObjAddr: 0x10260, symBinAddr: 0x100013860, symSize: 0x0 }
  - { offsetInCU: 0xB6, offset: 0xA500, size: 0x8, addend: 0x0, symName: _.str.4, symObjAddr: 0x10280, symBinAddr: 0x100013880, symSize: 0x0 }
  - { offsetInCU: 0xD3, offset: 0xA51D, size: 0x8, addend: 0x0, symName: _.str.5, symObjAddr: 0x102A0, symBinAddr: 0x1000138A0, symSize: 0x0 }
  - { offsetInCU: 0xF0, offset: 0xA53A, size: 0x8, addend: 0x0, symName: _.str.6, symObjAddr: 0x102C0, symBinAddr: 0x1000138C0, symSize: 0x0 }
  - { offsetInCU: 0x7191, offset: 0x115DB, size: 0x8, addend: 0x0, symName: __ZNSt3__17getlineB7v160006IcNS_11char_traitsIcEENS_9allocatorIcEEEERNS_13basic_istreamIT_T0_EES9_RNS_12basic_stringIS6_S7_T1_EE, symObjAddr: 0xAF0, symBinAddr: 0x100005C90, symSize: 0xD8 }
  - { offsetInCU: 0x72A2, offset: 0x116EC, size: 0x8, addend: 0x0, symName: __ZNSt3__1eqB7v160006ERKNS_14__map_iteratorINS_15__tree_iteratorINS_12__value_typeINS_12basic_stringIcNS_11char_traitsIcEENS_9allocatorIcEEEEdEEPNS_11__tree_nodeIS9_PvEElEEEESH_, symObjAddr: 0x3168, symBinAddr: 0x1000081B4, symSize: 0x30 }
  - { offsetInCU: 0x72DF, offset: 0x11729, size: 0x8, addend: 0x0, symName: __ZNSt3__1lsB7v160006IcNS_11char_traitsIcEENS_9allocatorIcEEEERNS_13basic_ostreamIT_T0_EES9_RKNS_12basic_stringIS6_S7_T1_EE, symObjAddr: 0x3708, symBinAddr: 0x100008754, symSize: 0x4C }
  - { offsetInCU: 0x767C, offset: 0x11AC6, size: 0x8, addend: 0x0, symName: __ZNSt3__17getlineB7v160006IcNS_11char_traitsIcEENS_9allocatorIcEEEERNS_13basic_istreamIT_T0_EES9_RNS_12basic_stringIS6_S7_T1_EES6_, symObjAddr: 0x3C4C, symBinAddr: 0x100008C98, symSize: 0x688 }
  - { offsetInCU: 0x7759, offset: 0x11BA3, size: 0x8, addend: 0x0, symName: __ZNSt3__117__libcpp_allocateB7v160006Emm, symObjAddr: 0x55A0, symBinAddr: 0x10000A5B4, symSize: 0x28 }
  - { offsetInCU: 0x7796, offset: 0x11BE0, size: 0x8, addend: 0x0, symName: __ZNSt3__121__libcpp_operator_newB7v160006IJmEEEPvDpT_, symObjAddr: 0x55DC, symBinAddr: 0x10000A5F0, symSize: 0x24 }
  - { offsetInCU: 0x77D0, offset: 0x11C1A, size: 0x8, addend: 0x0, symName: __ZNSt3__125__debug_db_invalidate_allB7v160006INS_12basic_stringIcNS_11char_traitsIcEENS_9allocatorIcEEEEEEvPT_, symObjAddr: 0x5EF8, symBinAddr: 0x10000AE94, symSize: 0x10 }
  - { offsetInCU: 0x7C56, offset: 0x120A0, size: 0x8, addend: 0x0, symName: __ZNSt3__119__libcpp_deallocateB7v160006EPvmm, symObjAddr: 0x83EC, symBinAddr: 0x10000CF54, symSize: 0x30 }
  - { offsetInCU: 0x7C9F, offset: 0x120E9, size: 0x8, addend: 0x0, symName: __ZNSt3__127__do_deallocate_handle_sizeB7v160006IJEEEvPvmDpT_, symObjAddr: 0x841C, symBinAddr: 0x10000CF84, symSize: 0x28 }
  - { offsetInCU: 0x7CDF, offset: 0x12129, size: 0x8, addend: 0x0, symName: __ZNSt3__124__libcpp_operator_deleteB7v160006IJPvEEEvDpT_, symObjAddr: 0x8444, symBinAddr: 0x10000CFAC, symSize: 0x24 }
  - { offsetInCU: 0x7D3B, offset: 0x12185, size: 0x8, addend: 0x0, symName: __ZNSt3__1ltB7v160006IcNS_11char_traitsIcEENS_9allocatorIcEEEEbRKNS_12basic_stringIT_T0_T1_EESB_, symObjAddr: 0x9F10, symBinAddr: 0x10000E6D8, symSize: 0x38 }
  - { offsetInCU: 0x7DB8, offset: 0x12202, size: 0x8, addend: 0x0, symName: __ZNSt3__13minB7v160006ImEERKT_S3_S3_, symObjAddr: 0xAA14, symBinAddr: 0x10000F1DC, symSize: 0x2C }
  - { offsetInCU: 0x7DFB, offset: 0x12245, size: 0x8, addend: 0x0, symName: __ZNSt3__118__constexpr_memcmpB7v160006IcEEiPKT_S3_m, symObjAddr: 0xAA40, symBinAddr: 0x10000F208, symSize: 0x34 }
  - { offsetInCU: 0x7E4C, offset: 0x12296, size: 0x8, addend: 0x0, symName: __ZNSt3__13minB7v160006ImNS_6__lessImmEEEERKT_S5_S5_T0_, symObjAddr: 0xAA74, symBinAddr: 0x10000F23C, symSize: 0x1E8 }
  - { offsetInCU: 0x7F05, offset: 0x1234F, size: 0x8, addend: 0x0, symName: __ZNSt3__127__tree_balance_after_insertB7v160006IPNS_16__tree_node_baseIPvEEEEvT_S5_, symObjAddr: 0xB674, symBinAddr: 0x10000FE3C, symSize: 0x994 }
  - { offsetInCU: 0x7F73, offset: 0x123BD, size: 0x8, addend: 0x0, symName: __ZNSt3__120__tree_is_left_childB7v160006IPNS_16__tree_node_baseIPvEEEEbT_, symObjAddr: 0xC094, symBinAddr: 0x10001085C, symSize: 0xB8 }
  - { offsetInCU: 0x7FA8, offset: 0x123F2, size: 0x8, addend: 0x0, symName: __ZNSt3__118__tree_left_rotateB7v160006IPNS_16__tree_node_baseIPvEEEEvT_, symObjAddr: 0xC14C, symBinAddr: 0x100010914, symSize: 0x3BC }
  - { offsetInCU: 0x7FEB, offset: 0x12435, size: 0x8, addend: 0x0, symName: __ZNSt3__119__tree_right_rotateB7v160006IPNS_16__tree_node_baseIPvEEEEvT_, symObjAddr: 0xC508, symBinAddr: 0x100010CD0, symSize: 0x384 }
  - { offsetInCU: 0x802E, offset: 0x12478, size: 0x8, addend: 0x0, symName: __ZNSt3__1neB7v160006ERKNS_15__tree_iteratorINS_12__value_typeINS_12basic_stringIcNS_11char_traitsIcEENS_9allocatorIcEEEEdEEPNS_11__tree_nodeIS8_PvEElEESF_, symObjAddr: 0xF5DC, symBinAddr: 0x1000125D4, symSize: 0x34 }
  - { offsetInCU: 0x806B, offset: 0x124B5, size: 0x8, addend: 0x0, symName: __ZNSt3__1eqB7v160006ERKNS_15__tree_iteratorINS_12__value_typeINS_12basic_stringIcNS_11char_traitsIcEENS_9allocatorIcEEEEdEEPNS_11__tree_nodeIS8_PvEElEESF_, symObjAddr: 0xF8E0, symBinAddr: 0x1000128D8, symSize: 0xB8 }
  - { offsetInCU: 0x8125, offset: 0x1256F, size: 0x8, addend: 0x0, symName: __ZSt28__throw_bad_array_new_lengthB7v160006v, symObjAddr: 0x5568, symBinAddr: 0x10000A57C, symSize: 0x38 }
  - { offsetInCU: 0xA626, offset: 0x14A70, size: 0x8, addend: 0x0, symName: __ZN15BitcoinExchangeC2Ev, symObjAddr: 0x0, symBinAddr: 0x1000051A0, symSize: 0x7D0 }
  - { offsetInCU: 0xA67D, offset: 0x14AC7, size: 0x8, addend: 0x0, symName: __ZNSt3__13mapINS_12basic_stringIcNS_11char_traitsIcEENS_9allocatorIcEEEEdNS_4lessIS6_EENS4_INS_4pairIKS6_dEEEEEC1B7v160006Ev, symObjAddr: 0x7D0, symBinAddr: 0x100005970, symSize: 0x2C }
  - { offsetInCU: 0xA6A5, offset: 0x14AEF, size: 0x8, addend: 0x0, symName: __ZNSt3__114basic_ifstreamIcNS_11char_traitsIcEEEC1EPKcj, symObjAddr: 0x7FC, symBinAddr: 0x10000599C, symSize: 0x2C8 }
  - { offsetInCU: 0xA6EE, offset: 0x14B38, size: 0x8, addend: 0x0, symName: __ZNSt3__112basic_stringIcNS_11char_traitsIcEENS_9allocatorIcEEEC1B7v160006Ev, symObjAddr: 0xAC4, symBinAddr: 0x100005C64, symSize: 0x2C }
  - { offsetInCU: 0xA716, offset: 0x14B60, size: 0x8, addend: 0x0, symName: __ZNKSt3__19basic_iosIcNS_11char_traitsIcEEEcvPvB7v160006Ev, symObjAddr: 0xBC8, symBinAddr: 0x100005D68, symSize: 0x4C }
  - { offsetInCU: 0xA73A, offset: 0x14B84, size: 0x8, addend: 0x0, symName: __ZNSt3__13mapINS_12basic_stringIcNS_11char_traitsIcEENS_9allocatorIcEEEEdNS_4lessIS6_EENS4_INS_4pairIKS6_dEEEEE6insertB7v160006ERKSB_, symObjAddr: 0xC14, symBinAddr: 0x100005DB4, symSize: 0x2A8 }
  - { offsetInCU: 0xA76F, offset: 0x14BB9, size: 0x8, addend: 0x0, symName: __ZNKSt3__112basic_stringIcNS_11char_traitsIcEENS_9allocatorIcEEE6substrB7v160006Emm, symObjAddr: 0xEBC, symBinAddr: 0x10000605C, symSize: 0x210 }
  - { offsetInCU: 0xA7CD, offset: 0x14C17, size: 0x8, addend: 0x0, symName: __ZNSt3__14pairINS_12basic_stringIcNS_11char_traitsIcEENS_9allocatorIcEEEEdEC1B7v160006ERKS6_RKd, symObjAddr: 0x10CC, symBinAddr: 0x10000626C, symSize: 0x3C }
  - { offsetInCU: 0xA811, offset: 0x14C5B, size: 0x8, addend: 0x0, symName: __ZNSt3__14pairIKNS_12basic_stringIcNS_11char_traitsIcEENS_9allocatorIcEEEEdEC1B7v160006IS6_dEERKNS0_IT_T0_EE, symObjAddr: 0x1108, symBinAddr: 0x1000062A8, symSize: 0x34 }
  - { offsetInCU: 0xA859, offset: 0x14CA3, size: 0x8, addend: 0x0, symName: __ZNSt3__14pairIKNS_12basic_stringIcNS_11char_traitsIcEENS_9allocatorIcEEEEdED1Ev, symObjAddr: 0x113C, symBinAddr: 0x1000062DC, symSize: 0x2C }
  - { offsetInCU: 0xA884, offset: 0x14CCE, size: 0x8, addend: 0x0, symName: __ZNSt3__14pairINS_12basic_stringIcNS_11char_traitsIcEENS_9allocatorIcEEEEdED1Ev, symObjAddr: 0x1174, symBinAddr: 0x100006308, symSize: 0x2C }
  - { offsetInCU: 0xA8B4, offset: 0x14CFE, size: 0x8, addend: 0x0, symName: __ZNSt3__114basic_ifstreamIcNS_11char_traitsIcEEED1Ev, symObjAddr: 0x11A0, symBinAddr: 0x100006334, symSize: 0x7C }
  - { offsetInCU: 0xA8E0, offset: 0x14D2A, size: 0x8, addend: 0x0, symName: __ZNSt3__13mapINS_12basic_stringIcNS_11char_traitsIcEENS_9allocatorIcEEEEdNS_4lessIS6_EENS4_INS_4pairIKS6_dEEEEED1B7v160006Ev, symObjAddr: 0x121C, symBinAddr: 0x1000063B0, symSize: 0x2C }
  - { offsetInCU: 0xA908, offset: 0x14D52, size: 0x8, addend: 0x0, symName: __ZN15BitcoinExchangeC1Ev, symObjAddr: 0x1248, symBinAddr: 0x1000063DC, symSize: 0x2C }
  - { offsetInCU: 0xA933, offset: 0x14D7D, size: 0x8, addend: 0x0, symName: __ZN15BitcoinExchangeD2Ev, symObjAddr: 0x1274, symBinAddr: 0x100006408, symSize: 0x2C }
  - { offsetInCU: 0xA95E, offset: 0x14DA8, size: 0x8, addend: 0x0, symName: __ZN15BitcoinExchangeD1Ev, symObjAddr: 0x12A0, symBinAddr: 0x100006434, symSize: 0x2C }
  - { offsetInCU: 0xA989, offset: 0x14DD3, size: 0x8, addend: 0x0, symName: __ZN15BitcoinExchange11printResultERKNSt3__112basic_stringIcNS0_11char_traitsIcEENS0_9allocatorIcEEEE, symObjAddr: 0x12CC, symBinAddr: 0x100006460, symSize: 0xBA8 }
  - { offsetInCU: 0xAA10, offset: 0x14E5A, size: 0x8, addend: 0x0, symName: __ZNSt3__114basic_ifstreamIcNS_11char_traitsIcEEEC1ERKNS_12basic_stringIcS2_NS_9allocatorIcEEEEj, symObjAddr: 0x1E74, symBinAddr: 0x100007008, symSize: 0x2C8 }
  - { offsetInCU: 0xAA5B, offset: 0x14EA5, size: 0x8, addend: 0x0, symName: __ZN12_GLOBAL__N_111isValidDateERKNSt3__112basic_stringIcNS0_11char_traitsIcEENS0_9allocatorIcEEEE, symObjAddr: 0x213C, symBinAddr: 0x1000072D0, symSize: 0x924 }
  - { offsetInCU: 0xAB06, offset: 0x14F50, size: 0x8, addend: 0x0, symName: __ZN12_GLOBAL__N_18isNumberERKNSt3__112basic_stringIcNS0_11char_traitsIcEENS0_9allocatorIcEEEE, symObjAddr: 0x2C2C, symBinAddr: 0x100007C78, symSize: 0x53C }
  - { offsetInCU: 0xAB5A, offset: 0x14FA4, size: 0x8, addend: 0x0, symName: __ZNSt3__112basic_stringIcNS_11char_traitsIcEENS_9allocatorIcEEEixB7v160006Em, symObjAddr: 0x2BA8, symBinAddr: 0x100007BF4, symSize: 0x30 }
  - { offsetInCU: 0xAB8D, offset: 0x14FD7, size: 0x8, addend: 0x0, symName: __ZNKSt3__112basic_stringIcNS_11char_traitsIcEENS_9allocatorIcEEE4sizeB7v160006Ev, symObjAddr: 0x2BD8, symBinAddr: 0x100007C24, symSize: 0x54 }
  - { offsetInCU: 0xABB1, offset: 0x14FFB, size: 0x8, addend: 0x0, symName: __ZNSt3__13mapINS_12basic_stringIcNS_11char_traitsIcEENS_9allocatorIcEEEEdNS_4lessIS6_EENS4_INS_4pairIKS6_dEEEEE4findB7v160006ERSA_, symObjAddr: 0x3198, symBinAddr: 0x1000081E4, symSize: 0x2BC }
  - { offsetInCU: 0xABE6, offset: 0x15030, size: 0x8, addend: 0x0, symName: __ZNSt3__13mapINS_12basic_stringIcNS_11char_traitsIcEENS_9allocatorIcEEEEdNS_4lessIS6_EENS4_INS_4pairIKS6_dEEEEE3endB7v160006Ev, symObjAddr: 0x3454, symBinAddr: 0x1000084A0, symSize: 0x2B4 }
  - { offsetInCU: 0xAC0B, offset: 0x15055, size: 0x8, addend: 0x0, symName: __ZNKSt3__114__map_iteratorINS_15__tree_iteratorINS_12__value_typeINS_12basic_stringIcNS_11char_traitsIcEENS_9allocatorIcEEEEdEEPNS_11__tree_nodeIS9_PvEElEEEptB7v160006Ev, symObjAddr: 0x3754, symBinAddr: 0x1000087A0, symSize: 0x2C }
  - { offsetInCU: 0xAC2F, offset: 0x15079, size: 0x8, addend: 0x0, symName: __ZNSt3__14pairIKNS_12basic_stringIcNS_11char_traitsIcEENS_9allocatorIcEEEEdED2Ev, symObjAddr: 0x3780, symBinAddr: 0x1000087CC, symSize: 0x2C }
  - { offsetInCU: 0xAC5A, offset: 0x150A4, size: 0x8, addend: 0x0, symName: __ZNSt3__14pairINS_12basic_stringIcNS_11char_traitsIcEENS_9allocatorIcEEEEdED2Ev, symObjAddr: 0x37AC, symBinAddr: 0x1000087F8, symSize: 0x2C }
  - { offsetInCU: 0xAC85, offset: 0x150CF, size: 0x8, addend: 0x0, symName: __ZNSt3__114basic_ifstreamIcNS_11char_traitsIcEEED2Ev, symObjAddr: 0x37D8, symBinAddr: 0x100008824, symSize: 0x1DC }
  - { offsetInCU: 0xACBD, offset: 0x15107, size: 0x8, addend: 0x0, symName: __ZTv0_n24_NSt3__114basic_ifstreamIcNS_11char_traitsIcEEED1Ev, symObjAddr: 0x39B4, symBinAddr: 0x100008A00, symSize: 0xB0 }
  - { offsetInCU: 0xAD24, offset: 0x1516E, size: 0x8, addend: 0x0, symName: __ZNSt3__119basic_istringstreamIcNS_11char_traitsIcEENS_9allocatorIcEEEC1B7v160006ERKNS_12basic_stringIcS2_S4_EEj, symObjAddr: 0x3A64, symBinAddr: 0x100008AB0, symSize: 0x1E8 }
  - { offsetInCU: 0xAD6A, offset: 0x151B4, size: 0x8, addend: 0x0, symName: __ZNKSt3__112basic_stringIcNS_11char_traitsIcEENS_9allocatorIcEEE5c_strB7v160006Ev, symObjAddr: 0x42D4, symBinAddr: 0x100009320, symSize: 0x24 }
  - { offsetInCU: 0xAD93, offset: 0x151DD, size: 0x8, addend: 0x0, symName: __ZNSt3__119basic_istringstreamIcNS_11char_traitsIcEENS_9allocatorIcEEED1Ev, symObjAddr: 0x42F8, symBinAddr: 0x100009344, symSize: 0x7C }
  - { offsetInCU: 0xADBF, offset: 0x15209, size: 0x8, addend: 0x0, symName: __ZNSt3__19basic_iosIcNS_11char_traitsIcEEEC2B7v160006Ev, symObjAddr: 0x4374, symBinAddr: 0x1000093C0, symSize: 0x84 }
  - { offsetInCU: 0xADE7, offset: 0x15231, size: 0x8, addend: 0x0, symName: __ZNSt3__113basic_istreamIcNS_11char_traitsIcEEEC2B7v160006EPNS_15basic_streambufIcS2_EE, symObjAddr: 0x43F8, symBinAddr: 0x100009444, symSize: 0x20C }
  - { offsetInCU: 0xAE29, offset: 0x15273, size: 0x8, addend: 0x0, symName: __ZNSt3__115basic_stringbufIcNS_11char_traitsIcEENS_9allocatorIcEEEC1B7v160006ERKNS_12basic_stringIcS2_S4_EEj, symObjAddr: 0x4604, symBinAddr: 0x100009650, symSize: 0x3C }
  - { offsetInCU: 0xAE6D, offset: 0x152B7, size: 0x8, addend: 0x0, symName: __ZNSt3__18ios_baseC2B7v160006Ev, symObjAddr: 0x4640, symBinAddr: 0x10000968C, symSize: 0x74 }
  - { offsetInCU: 0xAE95, offset: 0x152DF, size: 0x8, addend: 0x0, symName: __ZNSt3__19basic_iosIcNS_11char_traitsIcEEE4initB7v160006EPNS_15basic_streambufIcS2_EE, symObjAddr: 0x46B4, symBinAddr: 0x100009700, symSize: 0xEC }
  - { offsetInCU: 0xAECA, offset: 0x15314, size: 0x8, addend: 0x0, symName: __ZNSt3__115basic_stringbufIcNS_11char_traitsIcEENS_9allocatorIcEEEC2B7v160006ERKNS_12basic_stringIcS2_S4_EEj, symObjAddr: 0x47A8, symBinAddr: 0x1000097EC, symSize: 0x3D8 }
  - { offsetInCU: 0xAF11, offset: 0x1535B, size: 0x8, addend: 0x0, symName: __ZNKSt3__112basic_stringIcNS_11char_traitsIcEENS_9allocatorIcEEE13get_allocatorB7v160006Ev, symObjAddr: 0x4B80, symBinAddr: 0x100009BC4, symSize: 0x24 }
  - { offsetInCU: 0xAF35, offset: 0x1537F, size: 0x8, addend: 0x0, symName: __ZNSt3__112basic_stringIcNS_11char_traitsIcEENS_9allocatorIcEEEC1B7v160006ERKS4_, symObjAddr: 0x4BA4, symBinAddr: 0x100009BE8, symSize: 0x34 }
  - { offsetInCU: 0xAF6C, offset: 0x153B6, size: 0x8, addend: 0x0, symName: __ZNKSt3__112basic_stringIcNS_11char_traitsIcEENS_9allocatorIcEEE7__allocB7v160006Ev, symObjAddr: 0x4BD8, symBinAddr: 0x100009C1C, symSize: 0x24 }
  - { offsetInCU: 0xAF90, offset: 0x153DA, size: 0x8, addend: 0x0, symName: __ZNKSt3__117__compressed_pairINS_12basic_stringIcNS_11char_traitsIcEENS_9allocatorIcEEE5__repES5_E6secondB7v160006Ev, symObjAddr: 0x4BFC, symBinAddr: 0x100009C40, symSize: 0x24 }
  - { offsetInCU: 0xAFB4, offset: 0x153FE, size: 0x8, addend: 0x0, symName: __ZNKSt3__122__compressed_pair_elemINS_9allocatorIcEELi1ELb1EE5__getB7v160006Ev, symObjAddr: 0x4C20, symBinAddr: 0x100009C64, symSize: 0x14 }
  - { offsetInCU: 0xAFD8, offset: 0x15422, size: 0x8, addend: 0x0, symName: __ZNSt3__112basic_stringIcNS_11char_traitsIcEENS_9allocatorIcEEEC2B7v160006ERKS4_, symObjAddr: 0x4C34, symBinAddr: 0x100009C78, symSize: 0x1F0 }
  - { offsetInCU: 0xB016, offset: 0x15460, size: 0x8, addend: 0x0, symName: __ZNSt3__117__compressed_pairINS_12basic_stringIcNS_11char_traitsIcEENS_9allocatorIcEEE5__repES5_EC1B7v160006INS_18__default_init_tagERKS5_EEOT_OT0_, symObjAddr: 0x4E24, symBinAddr: 0x100009E68, symSize: 0x3C }
  - { offsetInCU: 0xB06C, offset: 0x154B6, size: 0x8, addend: 0x0, symName: __ZNSt3__112basic_stringIcNS_11char_traitsIcEENS_9allocatorIcEEE14__default_initB7v160006Ev, symObjAddr: 0x4E70, symBinAddr: 0x100009EA4, symSize: 0x298 }
  - { offsetInCU: 0xB0C0, offset: 0x1550A, size: 0x8, addend: 0x0, symName: __ZNSt3__117__compressed_pairINS_12basic_stringIcNS_11char_traitsIcEENS_9allocatorIcEEE5__repES5_EC2B7v160006INS_18__default_init_tagERKS5_EEOT_OT0_, symObjAddr: 0x5108, symBinAddr: 0x10000A13C, symSize: 0x40 }
  - { offsetInCU: 0xB116, offset: 0x15560, size: 0x8, addend: 0x0, symName: __ZNSt3__122__compressed_pair_elemINS_9allocatorIcEELi1ELb1EEC2B7v160006IRKS2_vEEOT_, symObjAddr: 0x515C, symBinAddr: 0x10000A17C, symSize: 0x18 }
  - { offsetInCU: 0xB157, offset: 0x155A1, size: 0x8, addend: 0x0, symName: __ZNSt3__117__compressed_pairINS_12basic_stringIcNS_11char_traitsIcEENS_9allocatorIcEEE5__repES5_E5firstB7v160006Ev, symObjAddr: 0x5174, symBinAddr: 0x10000A194, symSize: 0x24 }
  - { offsetInCU: 0xB17B, offset: 0x155C5, size: 0x8, addend: 0x0, symName: __ZNSt3__112basic_stringIcNS_11char_traitsIcEENS_9allocatorIcEEE11__recommendB7v160006Em, symObjAddr: 0x51A4, symBinAddr: 0x10000A1B8, symSize: 0x9C }
  - { offsetInCU: 0xB1AD, offset: 0x155F7, size: 0x8, addend: 0x0, symName: __ZNSt3__116allocator_traitsINS_9allocatorIcEEE8allocateB7v160006ERS2_m, symObjAddr: 0x5240, symBinAddr: 0x10000A254, symSize: 0x2C }
  - { offsetInCU: 0xB1DF, offset: 0x15629, size: 0x8, addend: 0x0, symName: __ZNSt3__112basic_stringIcNS_11char_traitsIcEENS_9allocatorIcEEE7__allocB7v160006Ev, symObjAddr: 0x526C, symBinAddr: 0x10000A280, symSize: 0x24 }
  - { offsetInCU: 0xB203, offset: 0x1564D, size: 0x8, addend: 0x0, symName: __ZNSt3__112basic_stringIcNS_11char_traitsIcEENS_9allocatorIcEEE16__begin_lifetimeB7v160006EPcm, symObjAddr: 0x5290, symBinAddr: 0x10000A2A4, symSize: 0x14 }
  - { offsetInCU: 0xB236, offset: 0x15680, size: 0x8, addend: 0x0, symName: __ZNSt3__112basic_stringIcNS_11char_traitsIcEENS_9allocatorIcEEE18__set_long_pointerB7v160006EPc, symObjAddr: 0x52A4, symBinAddr: 0x10000A2B8, symSize: 0x7C }
  - { offsetInCU: 0xB269, offset: 0x156B3, size: 0x8, addend: 0x0, symName: __ZNSt3__112basic_stringIcNS_11char_traitsIcEENS_9allocatorIcEEE14__set_long_capB7v160006Em, symObjAddr: 0x5320, symBinAddr: 0x10000A334, symSize: 0xEC }
  - { offsetInCU: 0xB29C, offset: 0x156E6, size: 0x8, addend: 0x0, symName: __ZNSt3__112basic_stringIcNS_11char_traitsIcEENS_9allocatorIcEEE15__set_long_sizeB7v160006Em, symObjAddr: 0x540C, symBinAddr: 0x10000A420, symSize: 0x80 }
  - { offsetInCU: 0xB2CF, offset: 0x15719, size: 0x8, addend: 0x0, symName: __ZNSt3__122__compressed_pair_elemINS_12basic_stringIcNS_11char_traitsIcEENS_9allocatorIcEEE5__repELi0ELb0EE5__getB7v160006Ev, symObjAddr: 0x548C, symBinAddr: 0x10000A4A0, symSize: 0x14 }
  - { offsetInCU: 0xB2F3, offset: 0x1573D, size: 0x8, addend: 0x0, symName: __ZNSt3__112basic_stringIcNS_11char_traitsIcEENS_9allocatorIcEEE10__align_itB7v160006ILm16EEEmm, symObjAddr: 0x54A0, symBinAddr: 0x10000A4B4, symSize: 0x1C }
  - { offsetInCU: 0xB321, offset: 0x1576B, size: 0x8, addend: 0x0, symName: __ZNSt3__19allocatorIcE8allocateB7v160006Em, symObjAddr: 0x54BC, symBinAddr: 0x10000A4D0, symSize: 0x88 }
  - { offsetInCU: 0xB35D, offset: 0x157A7, size: 0x8, addend: 0x0, symName: __ZNSt3__116allocator_traitsINS_9allocatorIcEEE8max_sizeB7v160006IS2_vEEmRKS2_, symObjAddr: 0x5544, symBinAddr: 0x10000A558, symSize: 0x24 }
  - { offsetInCU: 0xB38B, offset: 0x157D5, size: 0x8, addend: 0x0, symName: __ZNKSt3__19allocatorIcE8max_sizeB7v160006Ev, symObjAddr: 0x55C8, symBinAddr: 0x10000A5DC, symSize: 0x14 }
  - { offsetInCU: 0xB3AF, offset: 0x157F9, size: 0x8, addend: 0x0, symName: __ZNSt3__117__compressed_pairINS_12basic_stringIcNS_11char_traitsIcEENS_9allocatorIcEEE5__repES5_E6secondB7v160006Ev, symObjAddr: 0x5600, symBinAddr: 0x10000A614, symSize: 0x24 }
  - { offsetInCU: 0xB3D3, offset: 0x1581D, size: 0x8, addend: 0x0, symName: __ZNSt3__122__compressed_pair_elemINS_9allocatorIcEELi1ELb1EE5__getB7v160006Ev, symObjAddr: 0x5624, symBinAddr: 0x10000A638, symSize: 0x14 }
  - { offsetInCU: 0xB415, offset: 0x1585F, size: 0x8, addend: 0x0, symName: __ZNKSt3__113basic_istreamIcNS_11char_traitsIcEEE6sentrycvbB7v160006Ev, symObjAddr: 0x5638, symBinAddr: 0x10000A64C, symSize: 0x88 }
  - { offsetInCU: 0xB439, offset: 0x15883, size: 0x8, addend: 0x0, symName: __ZNSt3__112basic_stringIcNS_11char_traitsIcEENS_9allocatorIcEEE5clearB7v160006Ev, symObjAddr: 0x56C0, symBinAddr: 0x10000A6D4, symSize: 0x33C }
  - { offsetInCU: 0xB460, offset: 0x158AA, size: 0x8, addend: 0x0, symName: __ZNSt3__115basic_streambufIcNS_11char_traitsIcEEE6sbumpcB7v160006Ev, symObjAddr: 0x5A20, symBinAddr: 0x10000AA10, symSize: 0x1EC }
  - { offsetInCU: 0xB484, offset: 0x158CE, size: 0x8, addend: 0x0, symName: __ZNSt3__111char_traitsIcE12to_char_typeEi, symObjAddr: 0x5C34, symBinAddr: 0x10000ABFC, symSize: 0x18 }
  - { offsetInCU: 0xB4A7, offset: 0x158F1, size: 0x8, addend: 0x0, symName: __ZNSt3__111char_traitsIcE2eqEcc, symObjAddr: 0x5C4C, symBinAddr: 0x10000AC14, symSize: 0x28 }
  - { offsetInCU: 0xB4D8, offset: 0x15922, size: 0x8, addend: 0x0, symName: __ZNKSt3__112basic_stringIcNS_11char_traitsIcEENS_9allocatorIcEEE8max_sizeB7v160006Ev, symObjAddr: 0x5C74, symBinAddr: 0x10000AC3C, symSize: 0xBC }
  - { offsetInCU: 0xB529, offset: 0x15973, size: 0x8, addend: 0x0, symName: __ZNSt3__18ios_base18__setstate_nothrowB7v160006Ej, symObjAddr: 0x5D30, symBinAddr: 0x10000ACF8, symSize: 0x178 }
  - { offsetInCU: 0xB55C, offset: 0x159A6, size: 0x8, addend: 0x0, symName: __ZNKSt3__19basic_iosIcNS_11char_traitsIcEEE10exceptionsB7v160006Ev, symObjAddr: 0x5EA8, symBinAddr: 0x10000AE70, symSize: 0x24 }
  - { offsetInCU: 0xB580, offset: 0x159CA, size: 0x8, addend: 0x0, symName: __ZNSt3__111char_traitsIcE6assignERcRKc, symObjAddr: 0x5FE8, symBinAddr: 0x10000AEA4, symSize: 0xF4 }
  - { offsetInCU: 0xB5B0, offset: 0x159FA, size: 0x8, addend: 0x0, symName: __ZNSt3__112basic_stringIcNS_11char_traitsIcEENS_9allocatorIcEEE18__get_long_pointerB7v160006Ev, symObjAddr: 0x60DC, symBinAddr: 0x10000AF98, symSize: 0x6C }
  - { offsetInCU: 0xB5D4, offset: 0x15A1E, size: 0x8, addend: 0x0, symName: __ZNSt3__112basic_stringIcNS_11char_traitsIcEENS_9allocatorIcEEE19__get_short_pointerB7v160006Ev, symObjAddr: 0x6148, symBinAddr: 0x10000B004, symSize: 0x28 }
  - { offsetInCU: 0xB5F8, offset: 0x15A42, size: 0x8, addend: 0x0, symName: __ZNSt3__112basic_stringIcNS_11char_traitsIcEENS_9allocatorIcEEE16__set_short_sizeB7v160006Em, symObjAddr: 0x6170, symBinAddr: 0x10000B02C, symSize: 0x130 }
  - { offsetInCU: 0xB62B, offset: 0x15A75, size: 0x8, addend: 0x0, symName: __ZNSt3__114pointer_traitsIPcE10pointer_toB7v160006ERc, symObjAddr: 0x62D8, symBinAddr: 0x10000B15C, symSize: 0x14 }
  - { offsetInCU: 0xB64E, offset: 0x15A98, size: 0x8, addend: 0x0, symName: __ZNSt3__111char_traitsIcE11to_int_typeEc, symObjAddr: 0x6350, symBinAddr: 0x10000B170, symSize: 0x14 }
  - { offsetInCU: 0xB671, offset: 0x15ABB, size: 0x8, addend: 0x0, symName: __ZNSt3__114numeric_limitsImE3maxB7v160006Ev, symObjAddr: 0x6364, symBinAddr: 0x10000B184, symSize: 0x14 }
  - { offsetInCU: 0xB685, offset: 0x15ACF, size: 0x8, addend: 0x0, symName: __ZNSt3__123__libcpp_numeric_limitsImLb1EE3maxB7v160006Ev, symObjAddr: 0x6378, symBinAddr: 0x10000B198, symSize: 0x8 }
  - { offsetInCU: 0xB699, offset: 0x15AE3, size: 0x8, addend: 0x0, symName: __ZNKSt3__18ios_base10exceptionsB7v160006Ev, symObjAddr: 0x6380, symBinAddr: 0x10000B1A0, symSize: 0x8C }
  - { offsetInCU: 0xB6BF, offset: 0x15B09, size: 0x8, addend: 0x0, symName: __ZNSt3__119basic_istringstreamIcNS_11char_traitsIcEENS_9allocatorIcEEED2Ev, symObjAddr: 0x65E0, symBinAddr: 0x10000B22C, symSize: 0x1DC }
  - { offsetInCU: 0xB6F7, offset: 0x15B41, size: 0x8, addend: 0x0, symName: __ZTv0_n24_NSt3__119basic_istringstreamIcNS_11char_traitsIcEENS_9allocatorIcEEED1Ev, symObjAddr: 0x67BC, symBinAddr: 0x10000B408, symSize: 0xB0 }
  - { offsetInCU: 0xB713, offset: 0x15B5D, size: 0x8, addend: 0x0, symName: __ZNSt3__115basic_stringbufIcNS_11char_traitsIcEENS_9allocatorIcEEED1Ev, symObjAddr: 0x686C, symBinAddr: 0x10000B4B8, symSize: 0x2C }
  - { offsetInCU: 0xB73F, offset: 0x15B89, size: 0x8, addend: 0x0, symName: __ZNSt3__115basic_stringbufIcNS_11char_traitsIcEENS_9allocatorIcEEED2Ev, symObjAddr: 0x6898, symBinAddr: 0x10000B4E4, symSize: 0xC4 }
  - { offsetInCU: 0xB79D, offset: 0x15BE7, size: 0x8, addend: 0x0, symName: __ZNSt3__118basic_stringstreamIcNS_11char_traitsIcEENS_9allocatorIcEEEC1B7v160006ERKNS_12basic_stringIcS2_S4_EEj, symObjAddr: 0x695C, symBinAddr: 0x10000B5A8, symSize: 0x264 }
  - { offsetInCU: 0xB7E3, offset: 0x15C2D, size: 0x8, addend: 0x0, symName: __ZNKSt3__19basic_iosIcNS_11char_traitsIcEEE4failB7v160006Ev, symObjAddr: 0x6BC0, symBinAddr: 0x10000B80C, symSize: 0x28 }
  - { offsetInCU: 0xB807, offset: 0x15C51, size: 0x8, addend: 0x0, symName: __ZNKSt3__19basic_iosIcNS_11char_traitsIcEEE3eofB7v160006Ev, symObjAddr: 0x6BE8, symBinAddr: 0x10000B834, symSize: 0x28 }
  - { offsetInCU: 0xB830, offset: 0x15C7A, size: 0x8, addend: 0x0, symName: __ZNSt3__118basic_stringstreamIcNS_11char_traitsIcEENS_9allocatorIcEEED1Ev, symObjAddr: 0x6C10, symBinAddr: 0x10000B85C, symSize: 0x7C }
  - { offsetInCU: 0xB85C, offset: 0x15CA6, size: 0x8, addend: 0x0, symName: __ZNSt3__114basic_iostreamIcNS_11char_traitsIcEEEC2B7v160006EPNS_15basic_streambufIcS2_EE, symObjAddr: 0x6C8C, symBinAddr: 0x10000B8D8, symSize: 0x268 }
  - { offsetInCU: 0xB89F, offset: 0x15CE9, size: 0x8, addend: 0x0, symName: __ZNSt3__113basic_ostreamIcNS_11char_traitsIcEEEC2B7v160006Ev, symObjAddr: 0x6EF4, symBinAddr: 0x10000BB40, symSize: 0x17C }
  - { offsetInCU: 0xB8D3, offset: 0x15D1D, size: 0x8, addend: 0x0, symName: __ZNKSt3__18ios_base4failB7v160006Ev, symObjAddr: 0x7070, symBinAddr: 0x10000BCBC, symSize: 0x9C }
  - { offsetInCU: 0xB8F9, offset: 0x15D43, size: 0x8, addend: 0x0, symName: __ZNKSt3__18ios_base3eofB7v160006Ev, symObjAddr: 0x710C, symBinAddr: 0x10000BD58, symSize: 0x98 }
  - { offsetInCU: 0xB91F, offset: 0x15D69, size: 0x8, addend: 0x0, symName: __ZNSt3__118basic_stringstreamIcNS_11char_traitsIcEENS_9allocatorIcEEED2Ev, symObjAddr: 0x71A4, symBinAddr: 0x10000BDF0, symSize: 0x258 }
  - { offsetInCU: 0xB957, offset: 0x15DA1, size: 0x8, addend: 0x0, symName: __ZThn16_NSt3__118basic_stringstreamIcNS_11char_traitsIcEENS_9allocatorIcEEED1Ev, symObjAddr: 0x73FC, symBinAddr: 0x10000C048, symSize: 0x1C }
  - { offsetInCU: 0xB96E, offset: 0x15DB8, size: 0x8, addend: 0x0, symName: __ZTv0_n24_NSt3__118basic_stringstreamIcNS_11char_traitsIcEENS_9allocatorIcEEED1Ev, symObjAddr: 0x7418, symBinAddr: 0x10000C064, symSize: 0xB0 }
  - { offsetInCU: 0xB985, offset: 0x15DCF, size: 0x8, addend: 0x0, symName: __ZNSt3__112basic_stringIcNS_11char_traitsIcEENS_9allocatorIcEEEC2B7v160006Ev, symObjAddr: 0x74C8, symBinAddr: 0x10000C114, symSize: 0x1FC }
  - { offsetInCU: 0xB9AE, offset: 0x15DF8, size: 0x8, addend: 0x0, symName: __ZNSt3__13mapINS_12basic_stringIcNS_11char_traitsIcEENS_9allocatorIcEEEEdNS_4lessIS6_EENS4_INS_4pairIKS6_dEEEEEC2B7v160006Ev, symObjAddr: 0x77A8, symBinAddr: 0x10000C310, symSize: 0x1E8 }
  - { offsetInCU: 0xB9D7, offset: 0x15E21, size: 0x8, addend: 0x0, symName: __ZNSt3__119__map_value_compareINS_12basic_stringIcNS_11char_traitsIcEENS_9allocatorIcEEEENS_12__value_typeIS6_dEENS_4lessIS6_EELb1EEC1B7v160006ESA_, symObjAddr: 0x7990, symBinAddr: 0x10000C4F8, symSize: 0x2C }
  - { offsetInCU: 0xBA0E, offset: 0x15E58, size: 0x8, addend: 0x0, symName: __ZNSt3__16__treeINS_12__value_typeINS_12basic_stringIcNS_11char_traitsIcEENS_9allocatorIcEEEEdEENS_19__map_value_compareIS7_S8_NS_4lessIS7_EELb1EEENS5_IS8_EEEC1ERKSC_, symObjAddr: 0x79BC, symBinAddr: 0x10000C524, symSize: 0x34 }
  - { offsetInCU: 0xBA48, offset: 0x15E92, size: 0x8, addend: 0x0, symName: __ZNSt3__119__map_value_compareINS_12basic_stringIcNS_11char_traitsIcEENS_9allocatorIcEEEENS_12__value_typeIS6_dEENS_4lessIS6_EELb1EEC2B7v160006ESA_, symObjAddr: 0x79F0, symBinAddr: 0x10000C558, symSize: 0x14 }
  - { offsetInCU: 0xBA7F, offset: 0x15EC9, size: 0x8, addend: 0x0, symName: __ZNSt3__16__treeINS_12__value_typeINS_12basic_stringIcNS_11char_traitsIcEENS_9allocatorIcEEEEdEENS_19__map_value_compareIS7_S8_NS_4lessIS7_EELb1EEENS5_IS8_EEEC2ERKSC_, symObjAddr: 0x7A04, symBinAddr: 0x10000C56C, symSize: 0x2B4 }
  - { offsetInCU: 0xBABB, offset: 0x15F05, size: 0x8, addend: 0x0, symName: __ZNSt3__117__compressed_pairINS_15__tree_end_nodeIPNS_16__tree_node_baseIPvEEEENS_9allocatorINS_11__tree_nodeINS_12__value_typeINS_12basic_stringIcNS_11char_traitsIcEENS7_IcEEEEdEES3_EEEEEC1B7v160006ILb1EvEEv, symObjAddr: 0x7CB8, symBinAddr: 0x10000C820, symSize: 0x2C }
  - { offsetInCU: 0xBAF4, offset: 0x15F3E, size: 0x8, addend: 0x0, symName: __ZNSt3__117__compressed_pairImNS_19__map_value_compareINS_12basic_stringIcNS_11char_traitsIcEENS_9allocatorIcEEEENS_12__value_typeIS7_dEENS_4lessIS7_EELb1EEEEC1B7v160006IiRKSC_EEOT_OT0_, symObjAddr: 0x7CE4, symBinAddr: 0x10000C84C, symSize: 0x3C }
  - { offsetInCU: 0xBB4A, offset: 0x15F94, size: 0x8, addend: 0x0, symName: __ZNSt3__16__treeINS_12__value_typeINS_12basic_stringIcNS_11char_traitsIcEENS_9allocatorIcEEEEdEENS_19__map_value_compareIS7_S8_NS_4lessIS7_EELb1EEENS5_IS8_EEE10__end_nodeB7v160006Ev, symObjAddr: 0x7D20, symBinAddr: 0x10000C888, symSize: 0x2C }
  - { offsetInCU: 0xBB6E, offset: 0x15FB8, size: 0x8, addend: 0x0, symName: __ZNSt3__16__treeINS_12__value_typeINS_12basic_stringIcNS_11char_traitsIcEENS_9allocatorIcEEEEdEENS_19__map_value_compareIS7_S8_NS_4lessIS7_EELb1EEENS5_IS8_EEE12__begin_nodeB7v160006Ev, symObjAddr: 0x7D4C, symBinAddr: 0x10000C8B4, symSize: 0x14 }
  - { offsetInCU: 0xBB92, offset: 0x15FDC, size: 0x8, addend: 0x0, symName: __ZNSt3__117__compressed_pairINS_15__tree_end_nodeIPNS_16__tree_node_baseIPvEEEENS_9allocatorINS_11__tree_nodeINS_12__value_typeINS_12basic_stringIcNS_11char_traitsIcEENS7_IcEEEEdEES3_EEEEEC2B7v160006ILb1EvEEv, symObjAddr: 0x7D60, symBinAddr: 0x10000C8C8, symSize: 0x34 }
  - { offsetInCU: 0xBBC6, offset: 0x16010, size: 0x8, addend: 0x0, symName: __ZNSt3__122__compressed_pair_elemINS_15__tree_end_nodeIPNS_16__tree_node_baseIPvEEEELi0ELb0EEC2B7v160006ENS_16__value_init_tagE, symObjAddr: 0x7D94, symBinAddr: 0x10000C8FC, symSize: 0x2C }
  - { offsetInCU: 0xBBF8, offset: 0x16042, size: 0x8, addend: 0x0, symName: __ZNSt3__122__compressed_pair_elemINS_9allocatorINS_11__tree_nodeINS_12__value_typeINS_12basic_stringIcNS_11char_traitsIcEENS1_IcEEEEdEEPvEEEELi1ELb1EEC2B7v160006ENS_16__value_init_tagE, symObjAddr: 0x7DC0, symBinAddr: 0x10000C928, symSize: 0x2C }
  - { offsetInCU: 0xBC2A, offset: 0x16074, size: 0x8, addend: 0x0, symName: __ZNSt3__115__tree_end_nodeIPNS_16__tree_node_baseIPvEEEC1B7v160006Ev, symObjAddr: 0x7DEC, symBinAddr: 0x10000C954, symSize: 0x2C }
  - { offsetInCU: 0xBC52, offset: 0x1609C, size: 0x8, addend: 0x0, symName: __ZNSt3__115__tree_end_nodeIPNS_16__tree_node_baseIPvEEEC2B7v160006Ev, symObjAddr: 0x7E18, symBinAddr: 0x10000C980, symSize: 0x60 }
  - { offsetInCU: 0xBC7A, offset: 0x160C4, size: 0x8, addend: 0x0, symName: __ZNSt3__19allocatorINS_11__tree_nodeINS_12__value_typeINS_12basic_stringIcNS_11char_traitsIcEENS0_IcEEEEdEEPvEEEC2B7v160006Ev, symObjAddr: 0x7E78, symBinAddr: 0x10000C9E0, symSize: 0x2C }
  - { offsetInCU: 0xBCA2, offset: 0x160EC, size: 0x8, addend: 0x0, symName: __ZNSt3__116__non_trivial_ifILb1ENS_9allocatorINS_11__tree_nodeINS_12__value_typeINS_12basic_stringIcNS_11char_traitsIcEENS1_IcEEEEdEEPvEEEEEC2B7v160006Ev, symObjAddr: 0x7EA4, symBinAddr: 0x10000CA0C, symSize: 0x14 }
  - { offsetInCU: 0xBCCA, offset: 0x16114, size: 0x8, addend: 0x0, symName: __ZNSt3__117__compressed_pairImNS_19__map_value_compareINS_12basic_stringIcNS_11char_traitsIcEENS_9allocatorIcEEEENS_12__value_typeIS7_dEENS_4lessIS7_EELb1EEEEC2B7v160006IiRKSC_EEOT_OT0_, symObjAddr: 0x7EB8, symBinAddr: 0x10000CA20, symSize: 0x44 }
  - { offsetInCU: 0xBD20, offset: 0x1616A, size: 0x8, addend: 0x0, symName: __ZNSt3__122__compressed_pair_elemImLi0ELb0EEC2B7v160006IivEEOT_, symObjAddr: 0x7EFC, symBinAddr: 0x10000CA64, symSize: 0xD8 }
  - { offsetInCU: 0xBD61, offset: 0x161AB, size: 0x8, addend: 0x0, symName: __ZNSt3__122__compressed_pair_elemINS_19__map_value_compareINS_12basic_stringIcNS_11char_traitsIcEENS_9allocatorIcEEEENS_12__value_typeIS7_dEENS_4lessIS7_EELb1EEELi1ELb1EEC2B7v160006IRKSC_vEEOT_, symObjAddr: 0x7FD4, symBinAddr: 0x10000CB3C, symSize: 0x18 }
  - { offsetInCU: 0xBDA2, offset: 0x161EC, size: 0x8, addend: 0x0, symName: __ZNSt3__114pointer_traitsIPNS_15__tree_end_nodeIPNS_16__tree_node_baseIPvEEEEE10pointer_toB7v160006ERS6_, symObjAddr: 0x7FEC, symBinAddr: 0x10000CB54, symSize: 0x14 }
  - { offsetInCU: 0xBDC5, offset: 0x1620F, size: 0x8, addend: 0x0, symName: __ZNSt3__117__compressed_pairINS_15__tree_end_nodeIPNS_16__tree_node_baseIPvEEEENS_9allocatorINS_11__tree_nodeINS_12__value_typeINS_12basic_stringIcNS_11char_traitsIcEENS7_IcEEEEdEES3_EEEEE5firstB7v160006Ev, symObjAddr: 0x8000, symBinAddr: 0x10000CB68, symSize: 0x24 }
  - { offsetInCU: 0xBDE9, offset: 0x16233, size: 0x8, addend: 0x0, symName: __ZNSt3__122__compressed_pair_elemINS_15__tree_end_nodeIPNS_16__tree_node_baseIPvEEEELi0ELb0EE5__getB7v160006Ev, symObjAddr: 0x8024, symBinAddr: 0x10000CB8C, symSize: 0x14 }
  - { offsetInCU: 0xBE0D, offset: 0x16257, size: 0x8, addend: 0x0, symName: __ZNSt3__13mapINS_12basic_stringIcNS_11char_traitsIcEENS_9allocatorIcEEEEdNS_4lessIS6_EENS4_INS_4pairIKS6_dEEEEED2B7v160006Ev, symObjAddr: 0x8038, symBinAddr: 0x10000CBA0, symSize: 0x2C }
  - { offsetInCU: 0xBE35, offset: 0x1627F, size: 0x8, addend: 0x0, symName: __ZNSt3__16__treeINS_12__value_typeINS_12basic_stringIcNS_11char_traitsIcEENS_9allocatorIcEEEEdEENS_19__map_value_compareIS7_S8_NS_4lessIS7_EELb1EEENS5_IS8_EEED1Ev, symObjAddr: 0x8064, symBinAddr: 0x10000CBCC, symSize: 0x2C }
  - { offsetInCU: 0xBE60, offset: 0x162AA, size: 0x8, addend: 0x0, symName: __ZNSt3__16__treeINS_12__value_typeINS_12basic_stringIcNS_11char_traitsIcEENS_9allocatorIcEEEEdEENS_19__map_value_compareIS7_S8_NS_4lessIS7_EELb1EEENS5_IS8_EEED2Ev, symObjAddr: 0x8090, symBinAddr: 0x10000CBF8, symSize: 0x38 }
  - { offsetInCU: 0xBE8B, offset: 0x162D5, size: 0x8, addend: 0x0, symName: __ZNSt3__16__treeINS_12__value_typeINS_12basic_stringIcNS_11char_traitsIcEENS_9allocatorIcEEEEdEENS_19__map_value_compareIS7_S8_NS_4lessIS7_EELb1EEENS5_IS8_EEE7destroyEPNS_11__tree_nodeIS8_PvEE, symObjAddr: 0x80C8, symBinAddr: 0x10000CC30, symSize: 0x148 }
  - { offsetInCU: 0xBEDE, offset: 0x16328, size: 0x8, addend: 0x0, symName: __ZNKSt3__16__treeINS_12__value_typeINS_12basic_stringIcNS_11char_traitsIcEENS_9allocatorIcEEEEdEENS_19__map_value_compareIS7_S8_NS_4lessIS7_EELb1EEENS5_IS8_EEE6__rootB7v160006Ev, symObjAddr: 0x8210, symBinAddr: 0x10000CD78, symSize: 0x6C }
  - { offsetInCU: 0xBF02, offset: 0x1634C, size: 0x8, addend: 0x0, symName: __ZNSt3__16__treeINS_12__value_typeINS_12basic_stringIcNS_11char_traitsIcEENS_9allocatorIcEEEEdEENS_19__map_value_compareIS7_S8_NS_4lessIS7_EELb1EEENS5_IS8_EEE12__node_allocB7v160006Ev, symObjAddr: 0x827C, symBinAddr: 0x10000CDE4, symSize: 0x28 }
  - { offsetInCU: 0xBF26, offset: 0x16370, size: 0x8, addend: 0x0, symName: __ZNSt3__116allocator_traitsINS_9allocatorINS_11__tree_nodeINS_12__value_typeINS_12basic_stringIcNS_11char_traitsIcEENS1_IcEEEEdEEPvEEEEE7destroyB7v160006INS_4pairIKS8_dEEvvEEvRSC_PT_, symObjAddr: 0x82A4, symBinAddr: 0x10000CE0C, symSize: 0x28 }
  - { offsetInCU: 0xBF62, offset: 0x163AC, size: 0x8, addend: 0x0, symName: __ZNSt3__122__tree_key_value_typesINS_12__value_typeINS_12basic_stringIcNS_11char_traitsIcEENS_9allocatorIcEEEEdEEE9__get_ptrB7v160006ERS8_, symObjAddr: 0x82CC, symBinAddr: 0x10000CE34, symSize: 0x24 }
  - { offsetInCU: 0xBF85, offset: 0x163CF, size: 0x8, addend: 0x0, symName: __ZNSt3__116allocator_traitsINS_9allocatorINS_11__tree_nodeINS_12__value_typeINS_12basic_stringIcNS_11char_traitsIcEENS1_IcEEEEdEEPvEEEEE10deallocateB7v160006ERSC_PSB_m, symObjAddr: 0x82F0, symBinAddr: 0x10000CE58, symSize: 0x34 }
  - { offsetInCU: 0xBFC6, offset: 0x16410, size: 0x8, addend: 0x0, symName: __ZNSt3__117__compressed_pairINS_15__tree_end_nodeIPNS_16__tree_node_baseIPvEEEENS_9allocatorINS_11__tree_nodeINS_12__value_typeINS_12basic_stringIcNS_11char_traitsIcEENS7_IcEEEEdEES3_EEEEE6secondB7v160006Ev, symObjAddr: 0x8324, symBinAddr: 0x10000CE8C, symSize: 0x24 }
  - { offsetInCU: 0xBFEA, offset: 0x16434, size: 0x8, addend: 0x0, symName: __ZNSt3__122__compressed_pair_elemINS_9allocatorINS_11__tree_nodeINS_12__value_typeINS_12basic_stringIcNS_11char_traitsIcEENS1_IcEEEEdEEPvEEEELi1ELb1EE5__getB7v160006Ev, symObjAddr: 0x8348, symBinAddr: 0x10000CEB0, symSize: 0x14 }
  - { offsetInCU: 0xC00E, offset: 0x16458, size: 0x8, addend: 0x0, symName: __ZNSt3__112__value_typeINS_12basic_stringIcNS_11char_traitsIcEENS_9allocatorIcEEEEdE11__get_valueB7v160006Ev, symObjAddr: 0x835C, symBinAddr: 0x10000CEC4, symSize: 0x14 }
  - { offsetInCU: 0xC032, offset: 0x1647C, size: 0x8, addend: 0x0, symName: __ZNSt3__19allocatorINS_11__tree_nodeINS_12__value_typeINS_12basic_stringIcNS_11char_traitsIcEENS0_IcEEEEdEEPvEEE10deallocateB7v160006EPSA_m, symObjAddr: 0x8370, symBinAddr: 0x10000CED8, symSize: 0x7C }
  - { offsetInCU: 0xC072, offset: 0x164BC, size: 0x8, addend: 0x0, symName: __ZNKSt3__16__treeINS_12__value_typeINS_12basic_stringIcNS_11char_traitsIcEENS_9allocatorIcEEEEdEENS_19__map_value_compareIS7_S8_NS_4lessIS7_EELb1EEENS5_IS8_EEE10__end_nodeB7v160006Ev, symObjAddr: 0x8468, symBinAddr: 0x10000CFD0, symSize: 0x2C }
  - { offsetInCU: 0xC096, offset: 0x164E0, size: 0x8, addend: 0x0, symName: __ZNKSt3__117__compressed_pairINS_15__tree_end_nodeIPNS_16__tree_node_baseIPvEEEENS_9allocatorINS_11__tree_nodeINS_12__value_typeINS_12basic_stringIcNS_11char_traitsIcEENS7_IcEEEEdEES3_EEEEE5firstB7v160006Ev, symObjAddr: 0x8494, symBinAddr: 0x10000CFFC, symSize: 0x24 }
  - { offsetInCU: 0xC0BA, offset: 0x16504, size: 0x8, addend: 0x0, symName: __ZNKSt3__122__compressed_pair_elemINS_15__tree_end_nodeIPNS_16__tree_node_baseIPvEEEELi0ELb0EE5__getB7v160006Ev, symObjAddr: 0x84B8, symBinAddr: 0x10000D020, symSize: 0x14 }
  - { offsetInCU: 0xC0DE, offset: 0x16528, size: 0x8, addend: 0x0, symName: __ZNSt3__19allocatorIcEC1B7v160006Ev, symObjAddr: 0x886C, symBinAddr: 0x10000D034, symSize: 0x2C }
  - { offsetInCU: 0xC106, offset: 0x16550, size: 0x8, addend: 0x0, symName: __ZNSt3__14pairINS_12basic_stringIcNS_11char_traitsIcEENS_9allocatorIcEEEEdEC2B7v160006ERKS6_RKd, symObjAddr: 0x8898, symBinAddr: 0x10000D060, symSize: 0xCC }
  - { offsetInCU: 0xC14A, offset: 0x16594, size: 0x8, addend: 0x0, symName: __ZNSt3__16__treeINS_12__value_typeINS_12basic_stringIcNS_11char_traitsIcEENS_9allocatorIcEEEEdEENS_19__map_value_compareIS7_S8_NS_4lessIS7_EELb1EEENS5_IS8_EEE15__insert_uniqueB7v160006ERKNS_4pairIKS7_dEE, symObjAddr: 0x8964, symBinAddr: 0x10000D12C, symSize: 0x238 }
  - { offsetInCU: 0xC17F, offset: 0x165C9, size: 0x8, addend: 0x0, symName: __ZNSt3__14pairINS_14__map_iteratorINS_15__tree_iteratorINS_12__value_typeINS_12basic_stringIcNS_11char_traitsIcEENS_9allocatorIcEEEEdEEPNS_11__tree_nodeISA_PvEElEEEEbEC1B7v160006ISF_bEERKNS0_IT_T0_EE, symObjAddr: 0x8B9C, symBinAddr: 0x10000D364, symSize: 0x34 }
  - { offsetInCU: 0xC1C7, offset: 0x16611, size: 0x8, addend: 0x0, symName: __ZNSt3__16__treeINS_12__value_typeINS_12basic_stringIcNS_11char_traitsIcEENS_9allocatorIcEEEEdEENS_19__map_value_compareIS7_S8_NS_4lessIS7_EELb1EEENS5_IS8_EEE25__emplace_unique_key_argsIS7_JRKNS_4pairIKS7_dEEEEENSG_INS_15__tree_iteratorIS8_PNS_11__tree_nodeIS8_PvEElEEbEERKT_DpOT0_, symObjAddr: 0x8BD0, symBinAddr: 0x10000D398, symSize: 0x510 }
  - { offsetInCU: 0xC282, offset: 0x166CC, size: 0x8, addend: 0x0, symName: __ZNSt3__122__tree_key_value_typesINS_12__value_typeINS_12basic_stringIcNS_11char_traitsIcEENS_9allocatorIcEEEEdEEE9__get_keyB7v160006IKNS_4pairIKS7_dEEEENS_9enable_ifIXsr17__is_same_uncvrefIT_SD_EE5valueERSC_E4typeERSG_, symObjAddr: 0x90E0, symBinAddr: 0x10000D8A8, symSize: 0x14 }
  - { offsetInCU: 0xC2AF, offset: 0x166F9, size: 0x8, addend: 0x0, symName: __ZNSt3__16__treeINS_12__value_typeINS_12basic_stringIcNS_11char_traitsIcEENS_9allocatorIcEEEEdEENS_19__map_value_compareIS7_S8_NS_4lessIS7_EELb1EEENS5_IS8_EEE12__find_equalIS7_EERPNS_16__tree_node_baseIPvEERPNS_15__tree_end_nodeISJ_EERKT_, symObjAddr: 0x90F4, symBinAddr: 0x10000D8BC, symSize: 0x3F0 }
  - { offsetInCU: 0xC31A, offset: 0x16764, size: 0x8, addend: 0x0, symName: __ZNSt3__16__treeINS_12__value_typeINS_12basic_stringIcNS_11char_traitsIcEENS_9allocatorIcEEEEdEENS_19__map_value_compareIS7_S8_NS_4lessIS7_EELb1EEENS5_IS8_EEE16__construct_nodeIJRKNS_4pairIKS7_dEEEEENS_10unique_ptrINS_11__tree_nodeIS8_PvEENS_22__tree_node_destructorINS5_ISO_EEEEEEDpOT_, symObjAddr: 0x94E4, symBinAddr: 0x10000DCAC, symSize: 0x398 }
  - { offsetInCU: 0xC37E, offset: 0x167C8, size: 0x8, addend: 0x0, symName: __ZNSt3__16__treeINS_12__value_typeINS_12basic_stringIcNS_11char_traitsIcEENS_9allocatorIcEEEEdEENS_19__map_value_compareIS7_S8_NS_4lessIS7_EELb1EEENS5_IS8_EEE16__insert_node_atEPNS_15__tree_end_nodeIPNS_16__tree_node_baseIPvEEEERSJ_SJ_, symObjAddr: 0x987C, symBinAddr: 0x10000E044, symSize: 0x370 }
  - { offsetInCU: 0xC3D1, offset: 0x1681B, size: 0x8, addend: 0x0, symName: __ZNKSt3__110unique_ptrINS_11__tree_nodeINS_12__value_typeINS_12basic_stringIcNS_11char_traitsIcEENS_9allocatorIcEEEEdEEPvEENS_22__tree_node_destructorINS6_ISB_EEEEE3getB7v160006Ev, symObjAddr: 0x9BEC, symBinAddr: 0x10000E3B4, symSize: 0x6C }
  - { offsetInCU: 0xC3F5, offset: 0x1683F, size: 0x8, addend: 0x0, symName: __ZNSt3__110unique_ptrINS_11__tree_nodeINS_12__value_typeINS_12basic_stringIcNS_11char_traitsIcEENS_9allocatorIcEEEEdEEPvEENS_22__tree_node_destructorINS6_ISB_EEEEE7releaseB7v160006Ev, symObjAddr: 0x9C58, symBinAddr: 0x10000E420, symSize: 0xB8 }
  - { offsetInCU: 0xC428, offset: 0x16872, size: 0x8, addend: 0x0, symName: __ZNSt3__110unique_ptrINS_11__tree_nodeINS_12__value_typeINS_12basic_stringIcNS_11char_traitsIcEENS_9allocatorIcEEEEdEEPvEENS_22__tree_node_destructorINS6_ISB_EEEEED1B7v160006Ev, symObjAddr: 0x9D10, symBinAddr: 0x10000E4D8, symSize: 0x2C }
  - { offsetInCU: 0xC450, offset: 0x1689A, size: 0x8, addend: 0x0, symName: __ZNSt3__115__tree_iteratorINS_12__value_typeINS_12basic_stringIcNS_11char_traitsIcEENS_9allocatorIcEEEEdEEPNS_11__tree_nodeIS8_PvEElEC1B7v160006ESC_, symObjAddr: 0x9D3C, symBinAddr: 0x10000E504, symSize: 0x34 }
  - { offsetInCU: 0xC487, offset: 0x168D1, size: 0x8, addend: 0x0, symName: __ZNSt3__14pairINS_15__tree_iteratorINS_12__value_typeINS_12basic_stringIcNS_11char_traitsIcEENS_9allocatorIcEEEEdEEPNS_11__tree_nodeIS9_PvEElEEbEC1B7v160006ERKSE_RKb, symObjAddr: 0x9D70, symBinAddr: 0x10000E538, symSize: 0x3C }
  - { offsetInCU: 0xC4CB, offset: 0x16915, size: 0x8, addend: 0x0, symName: __ZNKSt3__16__treeINS_12__value_typeINS_12basic_stringIcNS_11char_traitsIcEENS_9allocatorIcEEEEdEENS_19__map_value_compareIS7_S8_NS_4lessIS7_EELb1EEENS5_IS8_EEE10__root_ptrEv, symObjAddr: 0x9DAC, symBinAddr: 0x10000E574, symSize: 0x24 }
  - { offsetInCU: 0xC4EF, offset: 0x16939, size: 0x8, addend: 0x0, symName: __ZNSt3__16__treeINS_12__value_typeINS_12basic_stringIcNS_11char_traitsIcEENS_9allocatorIcEEEEdEENS_19__map_value_compareIS7_S8_NS_4lessIS7_EELb1EEENS5_IS8_EEE10value_compB7v160006Ev, symObjAddr: 0x9DD0, symBinAddr: 0x10000E598, symSize: 0x28 }
  - { offsetInCU: 0xC513, offset: 0x1695D, size: 0x8, addend: 0x0, symName: __ZNKSt3__119__map_value_compareINS_12basic_stringIcNS_11char_traitsIcEENS_9allocatorIcEEEENS_12__value_typeIS6_dEENS_4lessIS6_EELb1EEclB7v160006ERKS6_RKS8_, symObjAddr: 0x9DF8, symBinAddr: 0x10000E5C0, symSize: 0x50 }
  - { offsetInCU: 0xC555, offset: 0x1699F, size: 0x8, addend: 0x0, symName: __ZNKSt3__119__map_value_compareINS_12basic_stringIcNS_11char_traitsIcEENS_9allocatorIcEEEENS_12__value_typeIS6_dEENS_4lessIS6_EELb1EEclB7v160006ERKS8_RKS6_, symObjAddr: 0x9E48, symBinAddr: 0x10000E610, symSize: 0x48 }
  - { offsetInCU: 0xC597, offset: 0x169E1, size: 0x8, addend: 0x0, symName: __ZNSt3__117__compressed_pairImNS_19__map_value_compareINS_12basic_stringIcNS_11char_traitsIcEENS_9allocatorIcEEEENS_12__value_typeIS7_dEENS_4lessIS7_EELb1EEEE6secondB7v160006Ev, symObjAddr: 0x9E90, symBinAddr: 0x10000E658, symSize: 0x24 }
  - { offsetInCU: 0xC5BB, offset: 0x16A05, size: 0x8, addend: 0x0, symName: __ZNSt3__122__compressed_pair_elemINS_19__map_value_compareINS_12basic_stringIcNS_11char_traitsIcEENS_9allocatorIcEEEENS_12__value_typeIS7_dEENS_4lessIS7_EELb1EEELi1ELb1EE5__getB7v160006Ev, symObjAddr: 0x9EB4, symBinAddr: 0x10000E67C, symSize: 0x14 }
  - { offsetInCU: 0xC5DF, offset: 0x16A29, size: 0x8, addend: 0x0, symName: __ZNKSt3__14lessINS_12basic_stringIcNS_11char_traitsIcEENS_9allocatorIcEEEEEclB7v160006ERKS6_S9_, symObjAddr: 0x9EC8, symBinAddr: 0x10000E690, symSize: 0x34 }
  - { offsetInCU: 0xC621, offset: 0x16A6B, size: 0x8, addend: 0x0, symName: __ZNKSt3__112__value_typeINS_12basic_stringIcNS_11char_traitsIcEENS_9allocatorIcEEEEdE11__get_valueB7v160006Ev, symObjAddr: 0x9EFC, symBinAddr: 0x10000E6C4, symSize: 0x14 }
  - { offsetInCU: 0xC645, offset: 0x16A8F, size: 0x8, addend: 0x0, symName: __ZNKSt3__112basic_stringIcNS_11char_traitsIcEENS_9allocatorIcEEE7compareB7v160006ERKS5_, symObjAddr: 0x9F48, symBinAddr: 0x10000E710, symSize: 0x238 }
  - { offsetInCU: 0xC67C, offset: 0x16AC6, size: 0x8, addend: 0x0, symName: __ZNKSt3__112basic_stringIcNS_11char_traitsIcEENS_9allocatorIcEEE7compareINS_17basic_string_viewIcS2_EEEENS_9enable_ifIXsr33__can_be_converted_to_string_viewIcS2_T_EE5valueEiE4typeERKSA_, symObjAddr: 0xA180, symBinAddr: 0x10000E948, symSize: 0x51C }
  - { offsetInCU: 0xC705, offset: 0x16B4F, size: 0x8, addend: 0x0, symName: __ZNKSt3__112basic_stringIcNS_11char_traitsIcEENS_9allocatorIcEEEcvNS_17basic_string_viewIcS2_EEB7v160006Ev, symObjAddr: 0xA69C, symBinAddr: 0x10000EE64, symSize: 0x228 }
  - { offsetInCU: 0xC72A, offset: 0x16B74, size: 0x8, addend: 0x0, symName: __ZNKSt3__117basic_string_viewIcNS_11char_traitsIcEEE4sizeB7v160006Ev, symObjAddr: 0xA8C4, symBinAddr: 0x10000F08C, symSize: 0x64 }
  - { offsetInCU: 0xC74E, offset: 0x16B98, size: 0x8, addend: 0x0, symName: __ZNSt3__111char_traitsIcE7compareEPKcS3_m, symObjAddr: 0xA928, symBinAddr: 0x10000F0F0, symSize: 0x8C }
  - { offsetInCU: 0xC78C, offset: 0x16BD6, size: 0x8, addend: 0x0, symName: __ZNKSt3__117basic_string_viewIcNS_11char_traitsIcEEE4dataB7v160006Ev, symObjAddr: 0xA9B4, symBinAddr: 0x10000F17C, symSize: 0x60 }
  - { offsetInCU: 0xC7BA, offset: 0x16C04, size: 0x8, addend: 0x0, symName: __ZNKSt3__16__lessImmEclB7v160006ERKmS3_, symObjAddr: 0xAC5C, symBinAddr: 0x10000F424, symSize: 0xBC }
  - { offsetInCU: 0xC7FA, offset: 0x16C44, size: 0x8, addend: 0x0, symName: __ZNSt3__117basic_string_viewIcNS_11char_traitsIcEEEC1B7v160006EPKcm, symObjAddr: 0xAD18, symBinAddr: 0x10000F4E0, symSize: 0x3C }
  - { offsetInCU: 0xC840, offset: 0x16C8A, size: 0x8, addend: 0x0, symName: __ZNSt3__117basic_string_viewIcNS_11char_traitsIcEEEC2B7v160006EPKcm, symObjAddr: 0xAD54, symBinAddr: 0x10000F51C, symSize: 0xBC }
  - { offsetInCU: 0xC886, offset: 0x16CD0, size: 0x8, addend: 0x0, symName: __ZNSt3__116allocator_traitsINS_9allocatorINS_11__tree_nodeINS_12__value_typeINS_12basic_stringIcNS_11char_traitsIcEENS1_IcEEEEdEEPvEEEEE8allocateB7v160006ERSC_m, symObjAddr: 0xAE10, symBinAddr: 0x10000F5D8, symSize: 0x2C }
  - { offsetInCU: 0xC8B8, offset: 0x16D02, size: 0x8, addend: 0x0, symName: __ZNSt3__122__tree_node_destructorINS_9allocatorINS_11__tree_nodeINS_12__value_typeINS_12basic_stringIcNS_11char_traitsIcEENS1_IcEEEEdEEPvEEEEEC1B7v160006ERSC_b, symObjAddr: 0xAE3C, symBinAddr: 0x10000F604, symSize: 0x48 }
  - { offsetInCU: 0xC903, offset: 0x16D4D, size: 0x8, addend: 0x0, symName: __ZNSt3__110unique_ptrINS_11__tree_nodeINS_12__value_typeINS_12basic_stringIcNS_11char_traitsIcEENS_9allocatorIcEEEEdEEPvEENS_22__tree_node_destructorINS6_ISB_EEEEEC1B7v160006ILb1EvEEPSB_NS_16__dependent_typeINS_27__unique_ptr_deleter_sfinaeISE_EEXT_EE20__good_rval_ref_typeE, symObjAddr: 0xAE84, symBinAddr: 0x10000F64C, symSize: 0x3C }
  - { offsetInCU: 0xC953, offset: 0x16D9D, size: 0x8, addend: 0x0, symName: __ZNSt3__116allocator_traitsINS_9allocatorINS_11__tree_nodeINS_12__value_typeINS_12basic_stringIcNS_11char_traitsIcEENS1_IcEEEEdEEPvEEEEE9constructB7v160006INS_4pairIKS8_dEEJRKSH_EvEEvRSC_PT_DpOT0_, symObjAddr: 0xAEC0, symBinAddr: 0x10000F688, symSize: 0x34 }
  - { offsetInCU: 0xC9AB, offset: 0x16DF5, size: 0x8, addend: 0x0, symName: __ZNKSt3__110unique_ptrINS_11__tree_nodeINS_12__value_typeINS_12basic_stringIcNS_11char_traitsIcEENS_9allocatorIcEEEEdEEPvEENS_22__tree_node_destructorINS6_ISB_EEEEEptB7v160006Ev, symObjAddr: 0xAEF4, symBinAddr: 0x10000F6BC, symSize: 0x6C }
  - { offsetInCU: 0xC9CF, offset: 0x16E19, size: 0x8, addend: 0x0, symName: __ZNSt3__110unique_ptrINS_11__tree_nodeINS_12__value_typeINS_12basic_stringIcNS_11char_traitsIcEENS_9allocatorIcEEEEdEEPvEENS_22__tree_node_destructorINS6_ISB_EEEEE11get_deleterB7v160006Ev, symObjAddr: 0xAF60, symBinAddr: 0x10000F728, symSize: 0x24 }
  - { offsetInCU: 0xC9F3, offset: 0x16E3D, size: 0x8, addend: 0x0, symName: __ZNSt3__19allocatorINS_11__tree_nodeINS_12__value_typeINS_12basic_stringIcNS_11char_traitsIcEENS0_IcEEEEdEEPvEEE8allocateB7v160006Em, symObjAddr: 0xAF84, symBinAddr: 0x10000F74C, symSize: 0x88 }
  - { offsetInCU: 0xCA2F, offset: 0x16E79, size: 0x8, addend: 0x0, symName: __ZNSt3__116allocator_traitsINS_9allocatorINS_11__tree_nodeINS_12__value_typeINS_12basic_stringIcNS_11char_traitsIcEENS1_IcEEEEdEEPvEEEEE8max_sizeB7v160006ISC_vEEmRKSC_, symObjAddr: 0xB00C, symBinAddr: 0x10000F7D4, symSize: 0x24 }
  - { offsetInCU: 0xCA5D, offset: 0x16EA7, size: 0x8, addend: 0x0, symName: __ZNKSt3__19allocatorINS_11__tree_nodeINS_12__value_typeINS_12basic_stringIcNS_11char_traitsIcEENS0_IcEEEEdEEPvEEE8max_sizeB7v160006Ev, symObjAddr: 0xB030, symBinAddr: 0x10000F7F8, symSize: 0x14 }
  - { offsetInCU: 0xCA81, offset: 0x16ECB, size: 0x8, addend: 0x0, symName: __ZNSt3__122__tree_node_destructorINS_9allocatorINS_11__tree_nodeINS_12__value_typeINS_12basic_stringIcNS_11char_traitsIcEENS1_IcEEEEdEEPvEEEEEC2B7v160006ERSC_b, symObjAddr: 0xB044, symBinAddr: 0x10000F80C, symSize: 0xF0 }
  - { offsetInCU: 0xCAC7, offset: 0x16F11, size: 0x8, addend: 0x0, symName: __ZNSt3__110unique_ptrINS_11__tree_nodeINS_12__value_typeINS_12basic_stringIcNS_11char_traitsIcEENS_9allocatorIcEEEEdEEPvEENS_22__tree_node_destructorINS6_ISB_EEEEEC2B7v160006ILb1EvEEPSB_NS_16__dependent_typeINS_27__unique_ptr_deleter_sfinaeISE_EEXT_EE20__good_rval_ref_typeE, symObjAddr: 0xB134, symBinAddr: 0x10000F8FC, symSize: 0x230 }
  - { offsetInCU: 0xCB1D, offset: 0x16F67, size: 0x8, addend: 0x0, symName: __ZNSt3__117__compressed_pairIPNS_11__tree_nodeINS_12__value_typeINS_12basic_stringIcNS_11char_traitsIcEENS_9allocatorIcEEEEdEEPvEENS_22__tree_node_destructorINS6_ISB_EEEEEC1B7v160006IRSC_SF_EEOT_OT0_, symObjAddr: 0xB364, symBinAddr: 0x10000FB2C, symSize: 0x3C }
  - { offsetInCU: 0xCB73, offset: 0x16FBD, size: 0x8, addend: 0x0, symName: __ZNSt3__117__compressed_pairIPNS_11__tree_nodeINS_12__value_typeINS_12basic_stringIcNS_11char_traitsIcEENS_9allocatorIcEEEEdEEPvEENS_22__tree_node_destructorINS6_ISB_EEEEEC2B7v160006IRSC_SF_EEOT_OT0_, symObjAddr: 0xB3A0, symBinAddr: 0x10000FB68, symSize: 0x48 }
  - { offsetInCU: 0xCBC9, offset: 0x17013, size: 0x8, addend: 0x0, symName: __ZNSt3__122__compressed_pair_elemIPNS_11__tree_nodeINS_12__value_typeINS_12basic_stringIcNS_11char_traitsIcEENS_9allocatorIcEEEEdEEPvEELi0ELb0EEC2B7v160006IRSC_vEEOT_, symObjAddr: 0xB3E8, symBinAddr: 0x10000FBB0, symSize: 0xB0 }
  - { offsetInCU: 0xCC0A, offset: 0x17054, size: 0x8, addend: 0x0, symName: __ZNSt3__122__compressed_pair_elemINS_22__tree_node_destructorINS_9allocatorINS_11__tree_nodeINS_12__value_typeINS_12basic_stringIcNS_11char_traitsIcEENS2_IcEEEEdEEPvEEEEEELi1ELb0EEC2B7v160006ISE_vEEOT_, symObjAddr: 0xB498, symBinAddr: 0x10000FC60, symSize: 0x38 }
  - { offsetInCU: 0xCC4B, offset: 0x17095, size: 0x8, addend: 0x0, symName: __ZNSt3__19allocatorINS_11__tree_nodeINS_12__value_typeINS_12basic_stringIcNS_11char_traitsIcEENS0_IcEEEEdEEPvEEE9constructB7v160006INS_4pairIKS7_dEEJRKSF_EEEvPT_DpOT0_, symObjAddr: 0xB4D0, symBinAddr: 0x10000FC98, symSize: 0x30 }
  - { offsetInCU: 0xCCA0, offset: 0x170EA, size: 0x8, addend: 0x0, symName: __ZNSt3__14pairIKNS_12basic_stringIcNS_11char_traitsIcEENS_9allocatorIcEEEEdEC1ERKS8_, symObjAddr: 0xB500, symBinAddr: 0x10000FCC8, symSize: 0x34 }
  - { offsetInCU: 0xCCD2, offset: 0x1711C, size: 0x8, addend: 0x0, symName: __ZNSt3__14pairIKNS_12basic_stringIcNS_11char_traitsIcEENS_9allocatorIcEEEEdEC2ERKS8_, symObjAddr: 0xB534, symBinAddr: 0x10000FCFC, symSize: 0xCC }
  - { offsetInCU: 0xCD04, offset: 0x1714E, size: 0x8, addend: 0x0, symName: __ZNKSt3__117__compressed_pairIPNS_11__tree_nodeINS_12__value_typeINS_12basic_stringIcNS_11char_traitsIcEENS_9allocatorIcEEEEdEEPvEENS_22__tree_node_destructorINS6_ISB_EEEEE5firstB7v160006Ev, symObjAddr: 0xB600, symBinAddr: 0x10000FDC8, symSize: 0x24 }
  - { offsetInCU: 0xCD28, offset: 0x17172, size: 0x8, addend: 0x0, symName: __ZNKSt3__122__compressed_pair_elemIPNS_11__tree_nodeINS_12__value_typeINS_12basic_stringIcNS_11char_traitsIcEENS_9allocatorIcEEEEdEEPvEELi0ELb0EE5__getB7v160006Ev, symObjAddr: 0xB624, symBinAddr: 0x10000FDEC, symSize: 0x14 }
  - { offsetInCU: 0xCD4C, offset: 0x17196, size: 0x8, addend: 0x0, symName: __ZNSt3__117__compressed_pairIPNS_11__tree_nodeINS_12__value_typeINS_12basic_stringIcNS_11char_traitsIcEENS_9allocatorIcEEEEdEEPvEENS_22__tree_node_destructorINS6_ISB_EEEEE6secondB7v160006Ev, symObjAddr: 0xB638, symBinAddr: 0x10000FE00, symSize: 0x28 }
  - { offsetInCU: 0xCD70, offset: 0x171BA, size: 0x8, addend: 0x0, symName: __ZNSt3__122__compressed_pair_elemINS_22__tree_node_destructorINS_9allocatorINS_11__tree_nodeINS_12__value_typeINS_12basic_stringIcNS_11char_traitsIcEENS2_IcEEEEdEEPvEEEEEELi1ELb0EE5__getB7v160006Ev, symObjAddr: 0xB660, symBinAddr: 0x10000FE28, symSize: 0x14 }
  - { offsetInCU: 0xCD94, offset: 0x171DE, size: 0x8, addend: 0x0, symName: __ZNSt3__16__treeINS_12__value_typeINS_12basic_stringIcNS_11char_traitsIcEENS_9allocatorIcEEEEdEENS_19__map_value_compareIS7_S8_NS_4lessIS7_EELb1EEENS5_IS8_EEE4sizeB7v160006Ev, symObjAddr: 0xC008, symBinAddr: 0x1000107D0, symSize: 0x28 }
  - { offsetInCU: 0xCDB8, offset: 0x17202, size: 0x8, addend: 0x0, symName: __ZNKSt3__116__tree_node_baseIPvE15__parent_unsafeB7v160006Ev, symObjAddr: 0xC030, symBinAddr: 0x1000107F8, symSize: 0x64 }
  - { offsetInCU: 0xCDDC, offset: 0x17226, size: 0x8, addend: 0x0, symName: __ZNSt3__116__tree_node_baseIPvE12__set_parentB7v160006EPS2_, symObjAddr: 0xC88C, symBinAddr: 0x100011054, symSize: 0x74 }
  - { offsetInCU: 0xCE0F, offset: 0x17259, size: 0x8, addend: 0x0, symName: __ZNSt3__117__compressed_pairImNS_19__map_value_compareINS_12basic_stringIcNS_11char_traitsIcEENS_9allocatorIcEEEENS_12__value_typeIS7_dEENS_4lessIS7_EELb1EEEE5firstB7v160006Ev, symObjAddr: 0xC900, symBinAddr: 0x1000110C8, symSize: 0x24 }
  - { offsetInCU: 0xCE33, offset: 0x1727D, size: 0x8, addend: 0x0, symName: __ZNSt3__122__compressed_pair_elemImLi0ELb0EE5__getB7v160006Ev, symObjAddr: 0xC924, symBinAddr: 0x1000110EC, symSize: 0x14 }
  - { offsetInCU: 0xCE57, offset: 0x172A1, size: 0x8, addend: 0x0, symName: __ZNSt3__117__compressed_pairIPNS_11__tree_nodeINS_12__value_typeINS_12basic_stringIcNS_11char_traitsIcEENS_9allocatorIcEEEEdEEPvEENS_22__tree_node_destructorINS6_ISB_EEEEE5firstB7v160006Ev, symObjAddr: 0xC938, symBinAddr: 0x100011100, symSize: 0x24 }
  - { offsetInCU: 0xCE7B, offset: 0x172C5, size: 0x8, addend: 0x0, symName: __ZNSt3__122__compressed_pair_elemIPNS_11__tree_nodeINS_12__value_typeINS_12basic_stringIcNS_11char_traitsIcEENS_9allocatorIcEEEEdEEPvEELi0ELb0EE5__getB7v160006Ev, symObjAddr: 0xC95C, symBinAddr: 0x100011124, symSize: 0x14 }
  - { offsetInCU: 0xCE9F, offset: 0x172E9, size: 0x8, addend: 0x0, symName: __ZNSt3__110unique_ptrINS_11__tree_nodeINS_12__value_typeINS_12basic_stringIcNS_11char_traitsIcEENS_9allocatorIcEEEEdEEPvEENS_22__tree_node_destructorINS6_ISB_EEEEED2B7v160006Ev, symObjAddr: 0xC970, symBinAddr: 0x100011138, symSize: 0x30 }
  - { offsetInCU: 0xCEC7, offset: 0x17311, size: 0x8, addend: 0x0, symName: __ZNSt3__110unique_ptrINS_11__tree_nodeINS_12__value_typeINS_12basic_stringIcNS_11char_traitsIcEENS_9allocatorIcEEEEdEEPvEENS_22__tree_node_destructorINS6_ISB_EEEEE5resetB7v160006EPSB_, symObjAddr: 0xC9A0, symBinAddr: 0x100011168, symSize: 0xEC }
  - { offsetInCU: 0xCF09, offset: 0x17353, size: 0x8, addend: 0x0, symName: __ZNSt3__122__tree_node_destructorINS_9allocatorINS_11__tree_nodeINS_12__value_typeINS_12basic_stringIcNS_11char_traitsIcEENS1_IcEEEEdEEPvEEEEEclB7v160006EPSB_, symObjAddr: 0xCA8C, symBinAddr: 0x100011254, symSize: 0x17C }
  - { offsetInCU: 0xCF3C, offset: 0x17386, size: 0x8, addend: 0x0, symName: __ZNSt3__115__tree_iteratorINS_12__value_typeINS_12basic_stringIcNS_11char_traitsIcEENS_9allocatorIcEEEEdEEPNS_11__tree_nodeIS8_PvEElEC2B7v160006ESC_, symObjAddr: 0xCC08, symBinAddr: 0x1000113D0, symSize: 0x70 }
  - { offsetInCU: 0xCF73, offset: 0x173BD, size: 0x8, addend: 0x0, symName: __ZNSt3__14pairINS_15__tree_iteratorINS_12__value_typeINS_12basic_stringIcNS_11char_traitsIcEENS_9allocatorIcEEEEdEEPNS_11__tree_nodeIS9_PvEElEEbEC2B7v160006ERKSE_RKb, symObjAddr: 0xCC78, symBinAddr: 0x100011440, symSize: 0x120 }
  - { offsetInCU: 0xCFB7, offset: 0x17401, size: 0x8, addend: 0x0, symName: __ZNSt3__14pairINS_14__map_iteratorINS_15__tree_iteratorINS_12__value_typeINS_12basic_stringIcNS_11char_traitsIcEENS_9allocatorIcEEEEdEEPNS_11__tree_nodeISA_PvEElEEEEbEC2B7v160006ISF_bEERKNS0_IT_T0_EE, symObjAddr: 0xCD98, symBinAddr: 0x100011560, symSize: 0x2E8 }
  - { offsetInCU: 0xD001, offset: 0x1744B, size: 0x8, addend: 0x0, symName: __ZNSt3__114__map_iteratorINS_15__tree_iteratorINS_12__value_typeINS_12basic_stringIcNS_11char_traitsIcEENS_9allocatorIcEEEEdEEPNS_11__tree_nodeIS9_PvEElEEEC1B7v160006ESE_, symObjAddr: 0xD080, symBinAddr: 0x100011848, symSize: 0x238 }
  - { offsetInCU: 0xD03D, offset: 0x17487, size: 0x8, addend: 0x0, symName: __ZNSt3__114__map_iteratorINS_15__tree_iteratorINS_12__value_typeINS_12basic_stringIcNS_11char_traitsIcEENS_9allocatorIcEEEEdEEPNS_11__tree_nodeIS9_PvEElEEEC2B7v160006ESE_, symObjAddr: 0xD2B8, symBinAddr: 0x100011A80, symSize: 0x204 }
  - { offsetInCU: 0xD079, offset: 0x174C3, size: 0x8, addend: 0x0, symName: __ZNSt3__14pairIKNS_12basic_stringIcNS_11char_traitsIcEENS_9allocatorIcEEEEdEC2B7v160006IS6_dEERKNS0_IT_T0_EE, symObjAddr: 0xD4BC, symBinAddr: 0x100011C84, symSize: 0xCC }
  - { offsetInCU: 0xD0C1, offset: 0x1750B, size: 0x8, addend: 0x0, symName: __ZNSt3__113basic_filebufIcNS_11char_traitsIcEEE4openERKNS_12basic_stringIcS2_NS_9allocatorIcEEEEj, symObjAddr: 0xD588, symBinAddr: 0x100011D50, symSize: 0x44 }
  - { offsetInCU: 0xD121, offset: 0x1756B, size: 0x8, addend: 0x0, symName: __ZNKSt3__112basic_stringIcNS_11char_traitsIcEENS_9allocatorIcEEE15__get_long_sizeB7v160006Ev, symObjAddr: 0xED9C, symBinAddr: 0x100011D94, symSize: 0x70 }
  - { offsetInCU: 0xD145, offset: 0x1758F, size: 0x8, addend: 0x0, symName: __ZNKSt3__112basic_stringIcNS_11char_traitsIcEENS_9allocatorIcEEE16__get_short_sizeB7v160006Ev, symObjAddr: 0xEE0C, symBinAddr: 0x100011E04, symSize: 0xA0 }
  - { offsetInCU: 0xD169, offset: 0x175B3, size: 0x8, addend: 0x0, symName: __ZNSt3__112basic_stringIcNS_11char_traitsIcEENS_9allocatorIcEEE13__get_pointerB7v160006Ev, symObjAddr: 0xEEAC, symBinAddr: 0x100011EA4, symSize: 0x54 }
  - { offsetInCU: 0xD18D, offset: 0x175D7, size: 0x8, addend: 0x0, symName: __ZNSt3__16__treeINS_12__value_typeINS_12basic_stringIcNS_11char_traitsIcEENS_9allocatorIcEEEEdEENS_19__map_value_compareIS7_S8_NS_4lessIS7_EELb1EEENS5_IS8_EEE4findIS7_EENS_15__tree_iteratorIS8_PNS_11__tree_nodeIS8_PvEElEERKT_, symObjAddr: 0xEF00, symBinAddr: 0x100011EF8, symSize: 0x3FC }
  - { offsetInCU: 0xD1E0, offset: 0x1762A, size: 0x8, addend: 0x0, symName: __ZNSt3__16__treeINS_12__value_typeINS_12basic_stringIcNS_11char_traitsIcEENS_9allocatorIcEEEEdEENS_19__map_value_compareIS7_S8_NS_4lessIS7_EELb1EEENS5_IS8_EEE13__lower_boundIS7_EENS_15__tree_iteratorIS8_PNS_11__tree_nodeIS8_PvEElEERKT_SK_PNS_15__tree_end_nodeIPNS_16__tree_node_baseISI_EEEE, symObjAddr: 0xF2FC, symBinAddr: 0x1000122F4, symSize: 0x2E0 }
  - { offsetInCU: 0xD240, offset: 0x1768A, size: 0x8, addend: 0x0, symName: __ZNSt3__16__treeINS_12__value_typeINS_12basic_stringIcNS_11char_traitsIcEENS_9allocatorIcEEEEdEENS_19__map_value_compareIS7_S8_NS_4lessIS7_EELb1EEENS5_IS8_EEE3endB7v160006Ev, symObjAddr: 0xF610, symBinAddr: 0x100012608, symSize: 0x204 }
  - { offsetInCU: 0xD265, offset: 0x176AF, size: 0x8, addend: 0x0, symName: __ZNKSt3__115__tree_iteratorINS_12__value_typeINS_12basic_stringIcNS_11char_traitsIcEENS_9allocatorIcEEEEdEEPNS_11__tree_nodeIS8_PvEElEdeB7v160006Ev, symObjAddr: 0xF814, symBinAddr: 0x10001280C, symSize: 0x28 }
  - { offsetInCU: 0xD289, offset: 0x176D3, size: 0x8, addend: 0x0, symName: __ZNSt3__115__tree_iteratorINS_12__value_typeINS_12basic_stringIcNS_11char_traitsIcEENS_9allocatorIcEEEEdEEPNS_11__tree_nodeIS8_PvEElEC1B7v160006EPNS_15__tree_end_nodeIPNS_16__tree_node_baseISA_EEEE, symObjAddr: 0xF83C, symBinAddr: 0x100012834, symSize: 0x34 }
  - { offsetInCU: 0xD2C0, offset: 0x1770A, size: 0x8, addend: 0x0, symName: __ZNSt3__115__tree_iteratorINS_12__value_typeINS_12basic_stringIcNS_11char_traitsIcEENS_9allocatorIcEEEEdEEPNS_11__tree_nodeIS8_PvEElEC2B7v160006EPNS_15__tree_end_nodeIPNS_16__tree_node_baseISA_EEEE, symObjAddr: 0xF870, symBinAddr: 0x100012868, symSize: 0x70 }
  - { offsetInCU: 0xD2F7, offset: 0x17741, size: 0x8, addend: 0x0, symName: __ZNKSt3__115__tree_iteratorINS_12__value_typeINS_12basic_stringIcNS_11char_traitsIcEENS_9allocatorIcEEEEdEEPNS_11__tree_nodeIS8_PvEElE8__get_npB7v160006Ev, symObjAddr: 0xF998, symBinAddr: 0x100012990, symSize: 0x60 }
  - { offsetInCU: 0xD31B, offset: 0x17765, size: 0x8, addend: 0x0, symName: __ZNSt3__114pointer_traitsIPNS_4pairIKNS_12basic_stringIcNS_11char_traitsIcEENS_9allocatorIcEEEEdEEE10pointer_toB7v160006ERS9_, symObjAddr: 0xF9F8, symBinAddr: 0x1000129F0, symSize: 0x14 }
  - { offsetInCU: 0xD33E, offset: 0x17788, size: 0x8, addend: 0x0, symName: __ZNKSt3__115__tree_iteratorINS_12__value_typeINS_12basic_stringIcNS_11char_traitsIcEENS_9allocatorIcEEEEdEEPNS_11__tree_nodeIS8_PvEElEptB7v160006Ev, symObjAddr: 0xFA0C, symBinAddr: 0x100012A04, symSize: 0x2C }
  - { offsetInCU: 0xD362, offset: 0x177AC, size: 0x8, addend: 0x0, symName: __ZNSt3__114pointer_traitsIPNS_12__value_typeINS_12basic_stringIcNS_11char_traitsIcEENS_9allocatorIcEEEEdEEE10pointer_toB7v160006ERS8_, symObjAddr: 0xFA38, symBinAddr: 0x100012A30, symSize: 0x14 }
...
