---
triple:          'arm64-apple-darwin'
binary-path:     PmergeMe
relocations:
  - { offsetInCU: 0x3B, offset: 0x3B, size: 0x8, addend: 0x0, symName: _.str, symObjAddr: 0x2A20, symBinAddr: 0x10003E100, symSize: 0x0 }
  - { offsetInCU: 0x2DAD, offset: 0x2DAD, size: 0x8, addend: 0x0, symName: __ZNSt3__124__put_character_sequenceB7v160006IcNS_11char_traitsIcEEEERNS_13basic_ostreamIT_T0_EES7_PKS4_m, symObjAddr: 0x5EC, symBinAddr: 0x1000047A8, symSize: 0x74C }
  - { offsetInCU: 0x4705, offset: 0x4705, size: 0x8, addend: 0x0, symName: __ZNSt3__1lsB7v160006INS_11char_traitsIcEEEERNS_13basic_ostreamIcT_EES6_PKc, symObjAddr: 0x464, symBinAddr: 0x100004620, symSize: 0x48 }
  - { offsetInCU: 0x474B, offset: 0x474B, size: 0x8, addend: 0x0, symName: __ZNSt3__14endlB7v160006IcNS_11char_traitsIcEEEERNS_13basic_ostreamIT_T0_EES7_, symObjAddr: 0x4D8, symBinAddr: 0x100004694, symSize: 0xD4 }
  - { offsetInCU: 0x478B, offset: 0x478B, size: 0x8, addend: 0x0, symName: __ZNSt3__116__pad_and_outputB7v160006IcNS_11char_traitsIcEEEENS_19ostreambuf_iteratorIT_T0_EES6_PKS4_S8_S8_RNS_8ios_baseES4_, symObjAddr: 0xE14, symBinAddr: 0x100004FD0, symSize: 0x774 }
  - { offsetInCU: 0x4868, offset: 0x4868, size: 0x8, addend: 0x0, symName: __ZNSt3__119__debug_db_insert_cB7v160006INS_12basic_stringIcNS_11char_traitsIcEENS_9allocatorIcEEEEEEvPT_, symObjAddr: 0x1D08, symBinAddr: 0x100005EC4, symSize: 0x10 }
  - { offsetInCU: 0x4899, offset: 0x4899, size: 0x8, addend: 0x0, symName: __ZNSt3__112__to_addressB7v160006IKcEEPT_S3_, symObjAddr: 0x1DD4, symBinAddr: 0x100005F90, symSize: 0x14 }
  - { offsetInCU: 0x48CE, offset: 0x48CE, size: 0x8, addend: 0x0, symName: __ZNSt3__130__libcpp_is_constant_evaluatedB7v160006Ev, symObjAddr: 0x1FB0, symBinAddr: 0x10000616C, symSize: 0xC }
  - { offsetInCU: 0x491E, offset: 0x491E, size: 0x8, addend: 0x0, symName: __ZNSt3__19use_facetB7v160006INS_5ctypeIcEEEERKT_RKNS_6localeE, symObjAddr: 0x2498, symBinAddr: 0x100006654, symSize: 0x2C }
  - { offsetInCU: 0x4DED, offset: 0x4DED, size: 0x8, addend: 0x0, symName: __ZNSt3__118__constexpr_strlenB7v160006EPKc, symObjAddr: 0x261C, symBinAddr: 0x1000067D8, symSize: 0x24 }
  - { offsetInCU: 0x9266, offset: 0x9266, size: 0x8, addend: 0x0, symName: _main, symObjAddr: 0x0, symBinAddr: 0x1000041BC, symSize: 0x464 }
  - { offsetInCU: 0x92B0, offset: 0x92B0, size: 0x8, addend: 0x0, symName: __ZNSt3__113basic_ostreamIcNS_11char_traitsIcEEElsB7v160006EPFRS3_S4_E, symObjAddr: 0x4AC, symBinAddr: 0x100004668, symSize: 0x2C }
  - { offsetInCU: 0x92E7, offset: 0x92E7, size: 0x8, addend: 0x0, symName: __ZNSt3__112basic_stringIcNS_11char_traitsIcEENS_9allocatorIcEEEC1B7v160006IDnEEPKc, symObjAddr: 0x5AC, symBinAddr: 0x100004768, symSize: 0x34 }
  - { offsetInCU: 0x9323, offset: 0x9323, size: 0x8, addend: 0x0, symName: __ZNSt3__111char_traitsIcE6lengthEPKc, symObjAddr: 0xD38, symBinAddr: 0x100004EF4, symSize: 0x54 }
  - { offsetInCU: 0x9363, offset: 0x9363, size: 0x8, addend: 0x0, symName: __ZNKSt3__113basic_ostreamIcNS_11char_traitsIcEEE6sentrycvbB7v160006Ev, symObjAddr: 0xD8C, symBinAddr: 0x100004F48, symSize: 0x88 }
  - { offsetInCU: 0x9387, offset: 0x9387, size: 0x8, addend: 0x0, symName: __ZNSt3__119ostreambuf_iteratorIcNS_11char_traitsIcEEEC1B7v160006ERNS_13basic_ostreamIcS2_EE, symObjAddr: 0x1588, symBinAddr: 0x100005744, symSize: 0x34 }
  - { offsetInCU: 0x93BD, offset: 0x93BD, size: 0x8, addend: 0x0, symName: __ZNKSt3__18ios_base5flagsB7v160006Ev, symObjAddr: 0x15BC, symBinAddr: 0x100005778, symSize: 0x8C }
  - { offsetInCU: 0x93E3, offset: 0x93E3, size: 0x8, addend: 0x0, symName: __ZNKSt3__19basic_iosIcNS_11char_traitsIcEEE4fillB7v160006Ev, symObjAddr: 0x1648, symBinAddr: 0x100005804, symSize: 0x198 }
  - { offsetInCU: 0x9409, offset: 0x9409, size: 0x8, addend: 0x0, symName: __ZNKSt3__119ostreambuf_iteratorIcNS_11char_traitsIcEEE6failedB7v160006Ev, symObjAddr: 0x17E0, symBinAddr: 0x10000599C, symSize: 0x6C }
  - { offsetInCU: 0x942D, offset: 0x942D, size: 0x8, addend: 0x0, symName: __ZNSt3__19basic_iosIcNS_11char_traitsIcEEE8setstateB7v160006Ej, symObjAddr: 0x184C, symBinAddr: 0x100005A08, symSize: 0x2C }
  - { offsetInCU: 0x9460, offset: 0x9460, size: 0x8, addend: 0x0, symName: __ZNKSt3__18ios_base5widthB7v160006Ev, symObjAddr: 0x1878, symBinAddr: 0x100005A34, symSize: 0x64 }
  - { offsetInCU: 0x9486, offset: 0x9486, size: 0x8, addend: 0x0, symName: __ZNSt3__115basic_streambufIcNS_11char_traitsIcEEE5sputnB7v160006EPKcl, symObjAddr: 0x18DC, symBinAddr: 0x100005A98, symSize: 0xC8 }
  - { offsetInCU: 0x94C6, offset: 0x94C6, size: 0x8, addend: 0x0, symName: __ZNSt3__112basic_stringIcNS_11char_traitsIcEENS_9allocatorIcEEEC1B7v160006Emc, symObjAddr: 0x19A4, symBinAddr: 0x100005B60, symSize: 0x3C }
  - { offsetInCU: 0x950C, offset: 0x950C, size: 0x8, addend: 0x0, symName: __ZNKSt3__112basic_stringIcNS_11char_traitsIcEENS_9allocatorIcEEE4dataB7v160006Ev, symObjAddr: 0x19E0, symBinAddr: 0x100005B9C, symSize: 0x28 }
  - { offsetInCU: 0x9530, offset: 0x9530, size: 0x8, addend: 0x0, symName: __ZNSt3__18ios_base5widthB7v160006El, symObjAddr: 0x1A08, symBinAddr: 0x100005BC4, symSize: 0xB8 }
  - { offsetInCU: 0x9574, offset: 0x9574, size: 0x8, addend: 0x0, symName: __ZNSt3__112basic_stringIcNS_11char_traitsIcEENS_9allocatorIcEEEC2B7v160006Emc, symObjAddr: 0x1AC0, symBinAddr: 0x100005C7C, symSize: 0x20C }
  - { offsetInCU: 0x95C2, offset: 0x95C2, size: 0x8, addend: 0x0, symName: __ZNSt3__117__compressed_pairINS_12basic_stringIcNS_11char_traitsIcEENS_9allocatorIcEEE5__repES5_EC1B7v160006INS_18__default_init_tagESA_EEOT_OT0_, symObjAddr: 0x1CCC, symBinAddr: 0x100005E88, symSize: 0x3C }
  - { offsetInCU: 0x9618, offset: 0x9618, size: 0x8, addend: 0x0, symName: __ZNSt3__117__compressed_pairINS_12basic_stringIcNS_11char_traitsIcEENS_9allocatorIcEEE5__repES5_EC2B7v160006INS_18__default_init_tagESA_EEOT_OT0_, symObjAddr: 0x1D18, symBinAddr: 0x100005ED4, symSize: 0x3C }
  - { offsetInCU: 0x966E, offset: 0x966E, size: 0x8, addend: 0x0, symName: __ZNSt3__122__compressed_pair_elemINS_12basic_stringIcNS_11char_traitsIcEENS_9allocatorIcEEE5__repELi0ELb0EEC2B7v160006ENS_18__default_init_tagE, symObjAddr: 0x1D54, symBinAddr: 0x100005F10, symSize: 0x14 }
  - { offsetInCU: 0x96A0, offset: 0x96A0, size: 0x8, addend: 0x0, symName: __ZNSt3__122__compressed_pair_elemINS_9allocatorIcEELi1ELb1EEC2B7v160006ENS_18__default_init_tagE, symObjAddr: 0x1D68, symBinAddr: 0x100005F24, symSize: 0x2C }
  - { offsetInCU: 0x96D2, offset: 0x96D2, size: 0x8, addend: 0x0, symName: __ZNSt3__19allocatorIcEC2B7v160006Ev, symObjAddr: 0x1D94, symBinAddr: 0x100005F50, symSize: 0x2C }
  - { offsetInCU: 0x96FA, offset: 0x96FA, size: 0x8, addend: 0x0, symName: __ZNSt3__116__non_trivial_ifILb1ENS_9allocatorIcEEEC2B7v160006Ev, symObjAddr: 0x1DC0, symBinAddr: 0x100005F7C, symSize: 0x14 }
  - { offsetInCU: 0x9722, offset: 0x9722, size: 0x8, addend: 0x0, symName: __ZNKSt3__112basic_stringIcNS_11char_traitsIcEENS_9allocatorIcEEE13__get_pointerB7v160006Ev, symObjAddr: 0x1DE8, symBinAddr: 0x100005FA4, symSize: 0x54 }
  - { offsetInCU: 0x9746, offset: 0x9746, size: 0x8, addend: 0x0, symName: __ZNKSt3__112basic_stringIcNS_11char_traitsIcEENS_9allocatorIcEEE9__is_longB7v160006Ev, symObjAddr: 0x1E3C, symBinAddr: 0x100005FF8, symSize: 0xE0 }
  - { offsetInCU: 0x976A, offset: 0x976A, size: 0x8, addend: 0x0, symName: __ZNKSt3__112basic_stringIcNS_11char_traitsIcEENS_9allocatorIcEEE18__get_long_pointerB7v160006Ev, symObjAddr: 0x1F1C, symBinAddr: 0x1000060D8, symSize: 0x6C }
  - { offsetInCU: 0x978E, offset: 0x978E, size: 0x8, addend: 0x0, symName: __ZNKSt3__112basic_stringIcNS_11char_traitsIcEENS_9allocatorIcEEE19__get_short_pointerB7v160006Ev, symObjAddr: 0x1F88, symBinAddr: 0x100006144, symSize: 0x28 }
  - { offsetInCU: 0x97B2, offset: 0x97B2, size: 0x8, addend: 0x0, symName: __ZNKSt3__117__compressed_pairINS_12basic_stringIcNS_11char_traitsIcEENS_9allocatorIcEEE5__repES5_E5firstB7v160006Ev, symObjAddr: 0x1FBC, symBinAddr: 0x100006178, symSize: 0x24 }
  - { offsetInCU: 0x97D6, offset: 0x97D6, size: 0x8, addend: 0x0, symName: __ZNKSt3__122__compressed_pair_elemINS_12basic_stringIcNS_11char_traitsIcEENS_9allocatorIcEEE5__repELi0ELb0EE5__getB7v160006Ev, symObjAddr: 0x1FE0, symBinAddr: 0x10000619C, symSize: 0x14 }
  - { offsetInCU: 0x97FA, offset: 0x97FA, size: 0x8, addend: 0x0, symName: __ZNSt3__114pointer_traitsIPKcE10pointer_toB7v160006ERS1_, symObjAddr: 0x1FF4, symBinAddr: 0x1000061B0, symSize: 0x14 }
  - { offsetInCU: 0x981C, offset: 0x981C, size: 0x8, addend: 0x0, symName: __ZNSt3__119ostreambuf_iteratorIcNS_11char_traitsIcEEEC2B7v160006ERNS_13basic_ostreamIcS2_EE, symObjAddr: 0x2008, symBinAddr: 0x1000061C4, symSize: 0x120 }
  - { offsetInCU: 0x9852, offset: 0x9852, size: 0x8, addend: 0x0, symName: __ZNKSt3__19basic_iosIcNS_11char_traitsIcEEE5rdbufB7v160006Ev, symObjAddr: 0x2128, symBinAddr: 0x1000062E4, symSize: 0x24 }
  - { offsetInCU: 0x9878, offset: 0x9878, size: 0x8, addend: 0x0, symName: __ZNKSt3__18ios_base5rdbufB7v160006Ev, symObjAddr: 0x214C, symBinAddr: 0x100006308, symSize: 0x64 }
  - { offsetInCU: 0x989C, offset: 0x989C, size: 0x8, addend: 0x0, symName: __ZNSt3__111char_traitsIcE11eq_int_typeEii, symObjAddr: 0x21B0, symBinAddr: 0x10000636C, symSize: 0x28 }
  - { offsetInCU: 0x98CC, offset: 0x98CC, size: 0x8, addend: 0x0, symName: __ZNSt3__111char_traitsIcE3eofEv, symObjAddr: 0x21D8, symBinAddr: 0x100006394, symSize: 0x8 }
  - { offsetInCU: 0x98DF, offset: 0x98DF, size: 0x8, addend: 0x0, symName: __ZNKSt3__19basic_iosIcNS_11char_traitsIcEEE5widenB7v160006Ec, symObjAddr: 0x21E0, symBinAddr: 0x10000639C, symSize: 0x2B8 }
  - { offsetInCU: 0x994D, offset: 0x994D, size: 0x8, addend: 0x0, symName: __ZNKSt3__15ctypeIcE5widenB7v160006Ec, symObjAddr: 0x24C4, symBinAddr: 0x100006680, symSize: 0xBC }
  - { offsetInCU: 0x9980, offset: 0x9980, size: 0x8, addend: 0x0, symName: __ZNSt3__18ios_base8setstateB7v160006Ej, symObjAddr: 0x2580, symBinAddr: 0x10000673C, symSize: 0x9C }
  - { offsetInCU: 0x99B5, offset: 0x99B5, size: 0x8, addend: 0x0, symName: __ZNSt3__112basic_stringIcNS_11char_traitsIcEENS_9allocatorIcEEEC2B7v160006IDnEEPKc, symObjAddr: 0x2640, symBinAddr: 0x1000067FC, symSize: 0x218 }
  - { offsetInCU: 0x3B, offset: 0x9D65, size: 0x8, addend: 0x0, symName: _.str, symObjAddr: 0x39320, symBinAddr: 0x10003E160, symSize: 0x0 }
  - { offsetInCU: 0x6B, offset: 0x9D95, size: 0x8, addend: 0x0, symName: _.str.1, symObjAddr: 0x39360, symBinAddr: 0x10003E1A0, symSize: 0x0 }
  - { offsetInCU: 0x88, offset: 0x9DB2, size: 0x8, addend: 0x0, symName: _.str.2, symObjAddr: 0x39380, symBinAddr: 0x10003E1C0, symSize: 0x0 }
  - { offsetInCU: 0xA5, offset: 0x9DCF, size: 0x8, addend: 0x0, symName: _.str.3, symObjAddr: 0x393C0, symBinAddr: 0x10003E200, symSize: 0x0 }
  - { offsetInCU: 0xC2, offset: 0x9DEC, size: 0x8, addend: 0x0, symName: _.str.4, symObjAddr: 0x39400, symBinAddr: 0x10003E240, symSize: 0x0 }
  - { offsetInCU: 0xDF, offset: 0x9E09, size: 0x8, addend: 0x0, symName: _.str.5, symObjAddr: 0x39420, symBinAddr: 0x10003E260, symSize: 0x0 }
  - { offsetInCU: 0xFD, offset: 0x9E27, size: 0x8, addend: 0x0, symName: _.str.6, symObjAddr: 0x39460, symBinAddr: 0x10003E2A0, symSize: 0x0 }
  - { offsetInCU: 0x6285, offset: 0xFFAF, size: 0x8, addend: 0x0, symName: __ZNSt3__17advanceB7v160006INS_11__wrap_iterIPiEEmmvEEvRT_T0_, symObjAddr: 0x5A64, symBinAddr: 0x10000C3BC, symSize: 0x50 }
  - { offsetInCU: 0x6325, offset: 0x1004F, size: 0x8, addend: 0x0, symName: __ZNSt3__111__sift_downB7v160006INS_17_ClassicAlgPolicyERNS_6__lessIiiEENS_11__wrap_iterIPiEEEEvT1_OT0_NS_15iterator_traitsIS8_E15difference_typeES8_, symObjAddr: 0x2958C, symBinAddr: 0x10002DE90, symSize: 0x9EC }
  - { offsetInCU: 0x63E7, offset: 0x10111, size: 0x8, addend: 0x0, symName: __ZNSt3__117__floyd_sift_downB7v160006INS_17_ClassicAlgPolicyERNS_6__lessIiiEENS_11__wrap_iterIPiEEEET1_S8_OT0_NS_15iterator_traitsIS8_E15difference_typeE, symObjAddr: 0x2B114, symBinAddr: 0x10002FA18, symSize: 0x558 }
  - { offsetInCU: 0x648E, offset: 0x101B8, size: 0x8, addend: 0x0, symName: __ZNSt3__17advanceB7v160006INS_16__deque_iteratorIiPiRiPS2_lLl1024EEEmmvEEvRT_T0_, symObjAddr: 0x7818, symBinAddr: 0x10000E170, symSize: 0x50 }
  - { offsetInCU: 0x6715, offset: 0x1043F, size: 0x8, addend: 0x0, symName: __ZNSt3__111__sift_downB7v160006INS_17_ClassicAlgPolicyERNS_6__lessIiiEENS_16__deque_iteratorIiPiRiPS6_lLl1024EEEEEvT1_OT0_NS_15iterator_traitsISA_E15difference_typeESA_, symObjAddr: 0x2FA40, symBinAddr: 0x100034344, symSize: 0xA1C }
  - { offsetInCU: 0x67D7, offset: 0x10501, size: 0x8, addend: 0x0, symName: __ZNSt3__117__floyd_sift_downB7v160006INS_17_ClassicAlgPolicyERNS_6__lessIiiEENS_16__deque_iteratorIiPiRiPS6_lLl1024EEEEET1_SA_OT0_NS_15iterator_traitsISA_E15difference_typeE, symObjAddr: 0x313F0, symBinAddr: 0x100035CF4, symSize: 0x564 }
  - { offsetInCU: 0x687E, offset: 0x105A8, size: 0x8, addend: 0x0, symName: __ZNSt3__111__introsortINS_17_ClassicAlgPolicyERNS_6__lessIiiEENS_16__deque_iteratorIiPiRiPS6_lLl1024EEEEEvT1_SA_T0_NS_15iterator_traitsISA_E15difference_typeE, symObjAddr: 0x32100, symBinAddr: 0x100036A04, symSize: 0x1BA8 }
  - { offsetInCU: 0x69F8, offset: 0x10722, size: 0x8, addend: 0x0, symName: __ZNSt3__118__insertion_sort_3B7v160006INS_17_ClassicAlgPolicyERNS_6__lessIiiEENS_16__deque_iteratorIiPiRiPS6_lLl1024EEEEEvT1_SA_T0_, symObjAddr: 0x34BC0, symBinAddr: 0x1000394C4, symSize: 0x8CC }
  - { offsetInCU: 0x6AE1, offset: 0x1080B, size: 0x8, addend: 0x0, symName: __ZNSt3__127__insertion_sort_incompleteIRNS_6__lessIiiEENS_16__deque_iteratorIiPiRiPS5_lLl1024EEEEEbT0_S9_T_, symObjAddr: 0x36928, symBinAddr: 0x10003B22C, symSize: 0x11B0 }
  - { offsetInCU: 0x8392, offset: 0x120BC, size: 0x8, addend: 0x0, symName: __ZNSt3__1neB7v160006ERKNS_16__deque_iteratorIiPiRiPS1_lLl1024EEES6_, symObjAddr: 0x25EC, symBinAddr: 0x100008F44, symSize: 0x34 }
  - { offsetInCU: 0x83CF, offset: 0x120F9, size: 0x8, addend: 0x0, symName: __ZNSt3__1neB7v160006IPiEEbRKNS_11__wrap_iterIT_EES6_, symObjAddr: 0x43B8, symBinAddr: 0x10000AD10, symSize: 0x34 }
  - { offsetInCU: 0x8412, offset: 0x1213C, size: 0x8, addend: 0x0, symName: __ZNSt3__14sortB7v160006INS_11__wrap_iterIPiEEEEvT_S4_, symObjAddr: 0x5B64, symBinAddr: 0x10000C4BC, symSize: 0x348 }
  - { offsetInCU: 0x845D, offset: 0x12187, size: 0x8, addend: 0x0, symName: __ZNSt3__1lsB7v160006IcNS_11char_traitsIcEEEERNS_13basic_ostreamIT_T0_EES7_RKNS_8__iom_t5E, symObjAddr: 0x5EAC, symBinAddr: 0x10000C804, symSize: 0x120 }
  - { offsetInCU: 0x84A9, offset: 0x121D3, size: 0x8, addend: 0x0, symName: __ZNSt3__15fixedB7v160006ERNS_8ios_baseE, symObjAddr: 0x608C, symBinAddr: 0x10000C9E4, symSize: 0x30 }
  - { offsetInCU: 0x84D7, offset: 0x12201, size: 0x8, addend: 0x0, symName: __ZNSt3__112setprecisionB7v160006Ei, symObjAddr: 0x60BC, symBinAddr: 0x10000CA14, symSize: 0x220 }
  - { offsetInCU: 0x8504, offset: 0x1222E, size: 0x8, addend: 0x0, symName: __ZNSt3__14sortB7v160006INS_16__deque_iteratorIiPiRiPS2_lLl1024EEEEEvT_S6_, symObjAddr: 0x7868, symBinAddr: 0x10000E1C0, symSize: 0x354 }
  - { offsetInCU: 0x854F, offset: 0x12279, size: 0x8, addend: 0x0, symName: __ZNSt3__112__to_addressB7v160006IPiEEPT_S3_, symObjAddr: 0x9100, symBinAddr: 0x10000FA58, symSize: 0x14 }
  - { offsetInCU: 0x8584, offset: 0x122AE, size: 0x8, addend: 0x0, symName: __ZNSt3__119__libcpp_deallocateB7v160006EPvmm, symObjAddr: 0x91B0, symBinAddr: 0x10000FAFC, symSize: 0x30 }
  - { offsetInCU: 0x85CD, offset: 0x122F7, size: 0x8, addend: 0x0, symName: __ZNSt3__127__do_deallocate_handle_sizeB7v160006IJEEEvPvmDpT_, symObjAddr: 0x91E0, symBinAddr: 0x10000FB2C, symSize: 0x28 }
  - { offsetInCU: 0x860D, offset: 0x12337, size: 0x8, addend: 0x0, symName: __ZNSt3__124__libcpp_operator_deleteB7v160006IJPvEEEvDpT_, symObjAddr: 0x9208, symBinAddr: 0x10000FB54, symSize: 0x24 }
  - { offsetInCU: 0x8644, offset: 0x1236E, size: 0x8, addend: 0x0, symName: __ZNSt3__119__debug_db_insert_cB7v160006INS_6vectorIiNS_9allocatorIiEEEEEEvPT_, symObjAddr: 0x95DC, symBinAddr: 0x10000FF28, symSize: 0x10 }
  - { offsetInCU: 0x8675, offset: 0x1239F, size: 0x8, addend: 0x0, symName: __ZNSt3__118__debug_db_erase_cB7v160006INS_6vectorIiNS_9allocatorIiEEEEEEvPT_, symObjAddr: 0x9F18, symBinAddr: 0x100010864, symSize: 0x10 }
  - { offsetInCU: 0x86A6, offset: 0x123D0, size: 0x8, addend: 0x0, symName: __ZNSt3__112__to_addressB7v160006IiEEPT_S2_, symObjAddr: 0xA138, symBinAddr: 0x100010A84, symSize: 0x14 }
  - { offsetInCU: 0x86DB, offset: 0x12405, size: 0x8, addend: 0x0, symName: __ZNSt3__13maxB7v160006ImEERKT_S3_S3_, symObjAddr: 0xF0E0, symBinAddr: 0x1000139E4, symSize: 0x2C }
  - { offsetInCU: 0x8AF5, offset: 0x1281F, size: 0x8, addend: 0x0, symName: __ZNSt3__14swapB7v160006IPPiEEvRT_S4_, symObjAddr: 0x107B0, symBinAddr: 0x1000150B4, symSize: 0x134 }
  - { offsetInCU: 0x8B46, offset: 0x12870, size: 0x8, addend: 0x0, symName: __ZNSt3__14moveB7v160006IPPiS2_EET0_T_S4_S3_, symObjAddr: 0x10A2C, symBinAddr: 0x100015330, symSize: 0x254 }
  - { offsetInCU: 0x8BA3, offset: 0x128CD, size: 0x8, addend: 0x0, symName: __ZNSt3__16__moveB7v160006INS_17_ClassicAlgPolicyEPPiS3_S3_EENS_4pairIT0_T2_EES5_T1_S6_, symObjAddr: 0x112FC, symBinAddr: 0x100015C00, symSize: 0x22C }
  - { offsetInCU: 0x8C12, offset: 0x1293C, size: 0x8, addend: 0x0, symName: __ZNSt3__123__dispatch_copy_or_moveB7v160006INS_17_ClassicAlgPolicyENS_11__move_loopIS1_EENS_14__move_trivialEPPiS6_S6_EENS_4pairIT2_T4_EES8_T3_S9_, symObjAddr: 0x11528, symBinAddr: 0x100015E2C, symSize: 0x23C }
  - { offsetInCU: 0x8C93, offset: 0x129BD, size: 0x8, addend: 0x0, symName: __ZNSt3__121__unwrap_and_dispatchB7v160006INS_10__overloadINS_11__move_loopINS_17_ClassicAlgPolicyEEENS_14__move_trivialEEEPPiS8_S8_Li0EEENS_4pairIT0_T2_EESA_T1_SB_, symObjAddr: 0x11764, symBinAddr: 0x100016068, symSize: 0x5A4 }
  - { offsetInCU: 0x8D2D, offset: 0x12A57, size: 0x8, addend: 0x0, symName: __ZNSt3__114__unwrap_rangeB7v160006IPPiS2_EENS_4pairIT0_S4_EET_S6_, symObjAddr: 0x11D08, symBinAddr: 0x10001660C, symSize: 0x350 }
  - { offsetInCU: 0x8EAC, offset: 0x12BD6, size: 0x8, addend: 0x0, symName: __ZNSt3__113__unwrap_iterB7v160006IPPiNS_18__unwrap_iter_implIS2_Lb1EEELi0EEEDTclsrT0_8__unwrapclsr3stdE7declvalIT_EEEES6_, symObjAddr: 0x12288, symBinAddr: 0x100016B8C, symSize: 0x24 }
  - { offsetInCU: 0x8EF1, offset: 0x12C1B, size: 0x8, addend: 0x0, symName: __ZNSt3__19make_pairB7v160006IPPiS2_EENS_4pairINS_18__unwrap_ref_decayIT_E4typeENS4_IT0_E4typeEEEOS5_OS8_, symObjAddr: 0x122AC, symBinAddr: 0x100016BB0, symSize: 0x20C }
  - { offsetInCU: 0x8F42, offset: 0x12C6C, size: 0x8, addend: 0x0, symName: __ZNSt3__114__rewrap_rangeB7v160006IPPiS2_EET_S3_T0_, symObjAddr: 0x124B8, symBinAddr: 0x100016DBC, symSize: 0x2C }
  - { offsetInCU: 0x8F8E, offset: 0x12CB8, size: 0x8, addend: 0x0, symName: __ZNSt3__113__rewrap_iterB7v160006IPPiS2_NS_18__unwrap_iter_implIS2_Lb1EEEEET_S5_T0_, symObjAddr: 0x124E4, symBinAddr: 0x100016DE8, symSize: 0x5C }
  - { offsetInCU: 0x8FE3, offset: 0x12D0D, size: 0x8, addend: 0x0, symName: __ZNSt3__119__copy_trivial_implB7v160006IPiS1_EENS_4pairIPT_PT0_EES4_S4_S6_, symObjAddr: 0x12540, symBinAddr: 0x100016E44, symSize: 0x3B8 }
  - { offsetInCU: 0x9052, offset: 0x12D7C, size: 0x8, addend: 0x0, symName: __ZNSt3__19make_pairB7v160006IRPPiS2_EENS_4pairINS_18__unwrap_ref_decayIT_E4typeENS5_IT0_E4typeEEEOS6_OS9_, symObjAddr: 0x128F8, symBinAddr: 0x1000171FC, symSize: 0x20C }
  - { offsetInCU: 0x90F7, offset: 0x12E21, size: 0x8, addend: 0x0, symName: __ZNSt3__18distanceB7v160006INS_13move_iteratorIPPiEEEENS_15iterator_traitsIT_E15difference_typeES6_S6_, symObjAddr: 0x12CEC, symBinAddr: 0x1000175F0, symSize: 0x350 }
  - { offsetInCU: 0x9142, offset: 0x12E6C, size: 0x8, addend: 0x0, symName: __ZNSt3__110__distanceB7v160006INS_13move_iteratorIPPiEEEENS_15iterator_traitsIT_E15difference_typeES6_S6_NS_26random_access_iterator_tagE, symObjAddr: 0x131C8, symBinAddr: 0x100017ACC, symSize: 0x274 }
  - { offsetInCU: 0x9198, offset: 0x12EC2, size: 0x8, addend: 0x0, symName: __ZNSt3__1miB7v160006IPPiS2_EENS_13move_iteratorIT_E15difference_typeERKS5_RKNS3_IT0_EE, symObjAddr: 0x1343C, symBinAddr: 0x100017D40, symSize: 0x48 }
  - { offsetInCU: 0x91E7, offset: 0x12F11, size: 0x8, addend: 0x0, symName: __ZNSt3__117__libcpp_allocateB7v160006Emm, symObjAddr: 0x13A8C, symBinAddr: 0x100018390, symSize: 0x28 }
  - { offsetInCU: 0x9224, offset: 0x12F4E, size: 0x8, addend: 0x0, symName: __ZNSt3__121__libcpp_operator_newB7v160006IJmEEEPvDpT_, symObjAddr: 0x13AC8, symBinAddr: 0x1000183CC, symSize: 0x24 }
  - { offsetInCU: 0x925E, offset: 0x12F88, size: 0x8, addend: 0x0, symName: __ZNSt3__113move_backwardB7v160006IPPiS2_EET0_T_S4_S3_, symObjAddr: 0x13AEC, symBinAddr: 0x1000183F0, symSize: 0x254 }
  - { offsetInCU: 0x92BB, offset: 0x12FE5, size: 0x8, addend: 0x0, symName: __ZNSt3__115__move_backwardB7v160006INS_17_ClassicAlgPolicyEPPiS3_S3_EENS_4pairIT0_T2_EES5_T1_S6_, symObjAddr: 0x13D40, symBinAddr: 0x100018644, symSize: 0x22C }
  - { offsetInCU: 0x932A, offset: 0x13054, size: 0x8, addend: 0x0, symName: __ZNSt3__123__dispatch_copy_or_moveB7v160006INS_17_ClassicAlgPolicyENS_20__move_backward_loopIS1_EENS_23__move_backward_trivialEPPiS6_S6_EENS_4pairIT2_T4_EES8_T3_S9_, symObjAddr: 0x13F6C, symBinAddr: 0x100018870, symSize: 0x23C }
  - { offsetInCU: 0x93AB, offset: 0x130D5, size: 0x8, addend: 0x0, symName: __ZNSt3__121__unwrap_and_dispatchB7v160006INS_10__overloadINS_20__move_backward_loopINS_17_ClassicAlgPolicyEEENS_23__move_backward_trivialEEEPPiS8_S8_Li0EEENS_4pairIT0_T2_EESA_T1_SB_, symObjAddr: 0x141A8, symBinAddr: 0x100018AAC, symSize: 0x5A4 }
  - { offsetInCU: 0x94C9, offset: 0x131F3, size: 0x8, addend: 0x0, symName: __ZNSt3__128__copy_backward_trivial_implB7v160006IPiS1_EENS_4pairIPT_PT0_EES4_S4_S6_, symObjAddr: 0x1497C, symBinAddr: 0x100019280, symSize: 0x3E0 }
  - { offsetInCU: 0x953B, offset: 0x13265, size: 0x8, addend: 0x0, symName: __ZNSt3__19make_pairB7v160006IRPPiS3_EENS_4pairINS_18__unwrap_ref_decayIT_E4typeENS5_IT0_E4typeEEEOS6_OS9_, symObjAddr: 0x14D5C, symBinAddr: 0x100019660, symSize: 0x20C }
  - { offsetInCU: 0x958C, offset: 0x132B6, size: 0x8, addend: 0x0, symName: __ZNSt3__13maxB7v160006ImNS_6__lessImmEEEERKT_S5_S5_T0_, symObjAddr: 0x14F68, symBinAddr: 0x10001986C, symSize: 0x1E8 }
  - { offsetInCU: 0x9627, offset: 0x13351, size: 0x8, addend: 0x0, symName: __ZNSt3__119__allocate_at_leastB7v160006INS_9allocatorIPiEEEENS_19__allocation_resultINS_16allocator_traitsIT_E7pointerEEERS6_m, symObjAddr: 0x15768, symBinAddr: 0x10001A06C, symSize: 0x28C }
  - { offsetInCU: 0x966C, offset: 0x13396, size: 0x8, addend: 0x0, symName: __ZNSt3__13minB7v160006ImEERKT_S3_S3_, symObjAddr: 0x18370, symBinAddr: 0x10001CC74, symSize: 0x2C }
  - { offsetInCU: 0x98BA, offset: 0x135E4, size: 0x8, addend: 0x0, symName: __ZNSt3__13minB7v160006ImNS_6__lessImmEEEERKT_S5_S5_T0_, symObjAddr: 0x183D8, symBinAddr: 0x10001CCDC, symSize: 0x1E8 }
  - { offsetInCU: 0x991A, offset: 0x13644, size: 0x8, addend: 0x0, symName: __ZNSt3__120__throw_length_errorB7v160006EPKc, symObjAddr: 0x18600, symBinAddr: 0x10001CF04, symSize: 0x68 }
  - { offsetInCU: 0x9943, offset: 0x1366D, size: 0x8, addend: 0x0, symName: __ZNSt3__119__allocate_at_leastB7v160006INS_9allocatorIiEEEENS_19__allocation_resultINS_16allocator_traitsIT_E7pointerEEERS5_m, symObjAddr: 0x18C84, symBinAddr: 0x10001D588, symSize: 0x28C }
  - { offsetInCU: 0x9988, offset: 0x136B2, size: 0x8, addend: 0x0, symName: __ZNSt3__142__uninitialized_allocator_move_if_noexceptB7v160006INS_9allocatorIiEENS_16reverse_iteratorIPiEES5_ivEET1_RT_T0_S9_S6_, symObjAddr: 0x190C4, symBinAddr: 0x10001D9C8, symSize: 0x550 }
  - { offsetInCU: 0x9A14, offset: 0x1373E, size: 0x8, addend: 0x0, symName: __ZNSt3__14swapB7v160006IPiEEvRT_S3_, symObjAddr: 0x196AC, symBinAddr: 0x10001DFB0, symSize: 0x134 }
  - { offsetInCU: 0x9A65, offset: 0x1378F, size: 0x8, addend: 0x0, symName: __ZNSt3__125__debug_db_invalidate_allB7v160006INS_6vectorIiNS_9allocatorIiEEEEEEvPT_, symObjAddr: 0x198B4, symBinAddr: 0x10001E1B8, symSize: 0x10 }
  - { offsetInCU: 0x9A96, offset: 0x137C0, size: 0x8, addend: 0x0, symName: __ZNSt3__1neB7v160006IPiS1_EEbRKNS_16reverse_iteratorIT_EERKNS2_IT0_EE, symObjAddr: 0x198C4, symBinAddr: 0x10001E1C8, symSize: 0x48 }
  - { offsetInCU: 0x9B09, offset: 0x13833, size: 0x8, addend: 0x0, symName: __ZNSt3__114__construct_atB7v160006IiJiEPiEEPT_S3_DpOT0_, symObjAddr: 0x1990C, symBinAddr: 0x10001E210, symSize: 0x108 }
  - { offsetInCU: 0x9B7C, offset: 0x138A6, size: 0x8, addend: 0x0, symName: __ZNSt3__112__to_addressB7v160006INS_16reverse_iteratorIPiEEvEENS_5decayIDTclsr19__to_address_helperIT_EE6__callclsr3stdE7declvalIRKS5_EEEEE4typeES7_, symObjAddr: 0x19A14, symBinAddr: 0x10001E318, symSize: 0x24 }
  - { offsetInCU: 0x9BB3, offset: 0x138DD, size: 0x8, addend: 0x0, symName: __ZNSt3__14moveB7v160006INS_16reverse_iteratorIPiEES3_EET0_T_S5_S4_, symObjAddr: 0x19B18, symBinAddr: 0x10001E41C, symSize: 0x4B0 }
  - { offsetInCU: 0x9C44, offset: 0x1396E, size: 0x8, addend: 0x0, symName: __ZNSt3__16__moveB7v160006INS_17_ClassicAlgPolicyENS_16reverse_iteratorIPiEES4_S4_EENS_4pairIT0_T2_EES6_T1_S7_, symObjAddr: 0x1A044, symBinAddr: 0x10001E948, symSize: 0x424 }
  - { offsetInCU: 0x9CBC, offset: 0x139E6, size: 0x8, addend: 0x0, symName: __ZNSt3__123__dispatch_copy_or_moveB7v160006INS_17_ClassicAlgPolicyENS_11__move_loopIS1_EENS_14__move_trivialENS_16reverse_iteratorIPiEES7_S7_EENS_4pairIT2_T4_EES9_T3_SA_, symObjAddr: 0x1A468, symBinAddr: 0x10001ED6C, symSize: 0x434 }
  - { offsetInCU: 0x9D46, offset: 0x13A70, size: 0x8, addend: 0x0, symName: __ZNSt3__121__unwrap_and_dispatchB7v160006INS_10__overloadINS_11__move_loopINS_17_ClassicAlgPolicyEEENS_14__move_trivialEEENS_16reverse_iteratorIPiEES9_S9_Li0EEENS_4pairIT0_T2_EESB_T1_SC_, symObjAddr: 0x1A89C, symBinAddr: 0x10001F1A0, symSize: 0x880 }
  - { offsetInCU: 0x9DEB, offset: 0x13B15, size: 0x8, addend: 0x0, symName: __ZNSt3__114__unwrap_rangeB7v160006INS_16reverse_iteratorIPiEES3_EENS_4pairIT0_S5_EET_S7_, symObjAddr: 0x1B11C, symBinAddr: 0x10001FA20, symSize: 0x448 }
  - { offsetInCU: 0x9F47, offset: 0x13C71, size: 0x8, addend: 0x0, symName: __ZNSt3__113__unwrap_iterB7v160006INS_16reverse_iteratorIPiEENS_18__unwrap_iter_implIS3_Lb0EEELi0EEEDTclsrT0_8__unwrapclsr3stdE7declvalIT_EEEES7_, symObjAddr: 0x1B95C, symBinAddr: 0x100020260, symSize: 0x2EC }
  - { offsetInCU: 0x9F90, offset: 0x13CBA, size: 0x8, addend: 0x0, symName: __ZNSt3__19make_pairB7v160006INS_16reverse_iteratorIPiEES3_EENS_4pairINS_18__unwrap_ref_decayIT_E4typeENS5_IT0_E4typeEEEOS6_OS9_, symObjAddr: 0x1BC48, symBinAddr: 0x10002054C, symSize: 0x38 }
  - { offsetInCU: 0x9FDF, offset: 0x13D09, size: 0x8, addend: 0x0, symName: __ZNSt3__114__rewrap_rangeB7v160006INS_16reverse_iteratorIPiEES3_EET_S4_T0_, symObjAddr: 0x1BC80, symBinAddr: 0x100020584, symSize: 0x3D4 }
  - { offsetInCU: 0xA033, offset: 0x13D5D, size: 0x8, addend: 0x0, symName: __ZNSt3__113__rewrap_iterB7v160006INS_16reverse_iteratorIPiEES3_NS_18__unwrap_iter_implIS3_Lb0EEEEET_S6_T0_, symObjAddr: 0x1C054, symBinAddr: 0x100020958, symSize: 0x3FC }
  - { offsetInCU: 0xA240, offset: 0x13F6A, size: 0x8, addend: 0x0, symName: __ZNSt3__1miB7v160006IPKiPiEENS_11__wrap_iterIT_E15difference_typeERKS6_RKNS4_IT0_EE, symObjAddr: 0x1F51C, symBinAddr: 0x100023E20, symSize: 0x48 }
  - { offsetInCU: 0xA28C, offset: 0x13FB6, size: 0x8, addend: 0x0, symName: __ZNSt3__113move_backwardB7v160006IPiS1_EET0_T_S3_S2_, symObjAddr: 0x20B58, symBinAddr: 0x10002545C, symSize: 0x254 }
  - { offsetInCU: 0xA2E9, offset: 0x14013, size: 0x8, addend: 0x0, symName: __ZNSt3__115__move_backwardB7v160006INS_17_ClassicAlgPolicyEPiS2_S2_EENS_4pairIT0_T2_EES4_T1_S5_, symObjAddr: 0x20DAC, symBinAddr: 0x1000256B0, symSize: 0x22C }
  - { offsetInCU: 0xA358, offset: 0x14082, size: 0x8, addend: 0x0, symName: __ZNSt3__123__dispatch_copy_or_moveB7v160006INS_17_ClassicAlgPolicyENS_20__move_backward_loopIS1_EENS_23__move_backward_trivialEPiS5_S5_EENS_4pairIT2_T4_EES7_T3_S8_, symObjAddr: 0x20FD8, symBinAddr: 0x1000258DC, symSize: 0x23C }
  - { offsetInCU: 0xA3D9, offset: 0x14103, size: 0x8, addend: 0x0, symName: __ZNSt3__121__unwrap_and_dispatchB7v160006INS_10__overloadINS_20__move_backward_loopINS_17_ClassicAlgPolicyEEENS_23__move_backward_trivialEEEPiS7_S7_Li0EEENS_4pairIT0_T2_EES9_T1_SA_, symObjAddr: 0x21214, symBinAddr: 0x100025B18, symSize: 0x5A4 }
  - { offsetInCU: 0xA473, offset: 0x1419D, size: 0x8, addend: 0x0, symName: __ZNSt3__114__unwrap_rangeB7v160006IPiS1_EENS_4pairIT0_S3_EET_S5_, symObjAddr: 0x217B8, symBinAddr: 0x1000260BC, symSize: 0x350 }
  - { offsetInCU: 0xA56E, offset: 0x14298, size: 0x8, addend: 0x0, symName: __ZNSt3__113__unwrap_iterB7v160006IPiNS_18__unwrap_iter_implIS1_Lb1EEELi0EEEDTclsrT0_8__unwrapclsr3stdE7declvalIT_EEEES5_, symObjAddr: 0x21D38, symBinAddr: 0x10002663C, symSize: 0x24 }
  - { offsetInCU: 0xA5B3, offset: 0x142DD, size: 0x8, addend: 0x0, symName: __ZNSt3__19make_pairB7v160006IPiS1_EENS_4pairINS_18__unwrap_ref_decayIT_E4typeENS3_IT0_E4typeEEEOS4_OS7_, symObjAddr: 0x21D5C, symBinAddr: 0x100026660, symSize: 0x20C }
  - { offsetInCU: 0xA604, offset: 0x1432E, size: 0x8, addend: 0x0, symName: __ZNSt3__114__rewrap_rangeB7v160006IPiS1_EET_S2_T0_, symObjAddr: 0x21F68, symBinAddr: 0x10002686C, symSize: 0x2C }
  - { offsetInCU: 0xA650, offset: 0x1437A, size: 0x8, addend: 0x0, symName: __ZNSt3__113__rewrap_iterB7v160006IPiS1_NS_18__unwrap_iter_implIS1_Lb1EEEEET_S4_T0_, symObjAddr: 0x21F94, symBinAddr: 0x100026898, symSize: 0x5C }
  - { offsetInCU: 0xA6A5, offset: 0x143CF, size: 0x8, addend: 0x0, symName: __ZNSt3__128__copy_backward_trivial_implB7v160006IiiEENS_4pairIPT_PT0_EES3_S3_S5_, symObjAddr: 0x21FF0, symBinAddr: 0x1000268F4, symSize: 0x3E0 }
  - { offsetInCU: 0xA717, offset: 0x14441, size: 0x8, addend: 0x0, symName: __ZNSt3__19make_pairB7v160006IRPiS2_EENS_4pairINS_18__unwrap_ref_decayIT_E4typeENS4_IT0_E4typeEEEOS5_OS8_, symObjAddr: 0x223D0, symBinAddr: 0x100026CD4, symSize: 0x20C }
  - { offsetInCU: 0xA7BC, offset: 0x144E6, size: 0x8, addend: 0x0, symName: __ZNSt3__14moveB7v160006IPiS1_EET0_T_S3_S2_, symObjAddr: 0x227C4, symBinAddr: 0x1000270C8, symSize: 0x254 }
  - { offsetInCU: 0xA819, offset: 0x14543, size: 0x8, addend: 0x0, symName: __ZNSt3__16__moveB7v160006INS_17_ClassicAlgPolicyEPiS2_S2_EENS_4pairIT0_T2_EES4_T1_S5_, symObjAddr: 0x23060, symBinAddr: 0x100027964, symSize: 0x22C }
  - { offsetInCU: 0xA888, offset: 0x145B2, size: 0x8, addend: 0x0, symName: __ZNSt3__123__dispatch_copy_or_moveB7v160006INS_17_ClassicAlgPolicyENS_11__move_loopIS1_EENS_14__move_trivialEPiS5_S5_EENS_4pairIT2_T4_EES7_T3_S8_, symObjAddr: 0x2328C, symBinAddr: 0x100027B90, symSize: 0x23C }
  - { offsetInCU: 0xA909, offset: 0x14633, size: 0x8, addend: 0x0, symName: __ZNSt3__121__unwrap_and_dispatchB7v160006INS_10__overloadINS_11__move_loopINS_17_ClassicAlgPolicyEEENS_14__move_trivialEEEPiS7_S7_Li0EEENS_4pairIT0_T2_EES9_T1_SA_, symObjAddr: 0x234C8, symBinAddr: 0x100027DCC, symSize: 0x5A4 }
  - { offsetInCU: 0xA9A3, offset: 0x146CD, size: 0x8, addend: 0x0, symName: __ZNSt3__119__copy_trivial_implB7v160006IiiEENS_4pairIPT_PT0_EES3_S3_S5_, symObjAddr: 0x23C9C, symBinAddr: 0x1000285A0, symSize: 0x3B8 }
  - { offsetInCU: 0xAA12, offset: 0x1473C, size: 0x8, addend: 0x0, symName: __ZNSt3__19make_pairB7v160006IRPiS1_EENS_4pairINS_18__unwrap_ref_decayIT_E4typeENS4_IT0_E4typeEEEOS5_OS8_, symObjAddr: 0x24054, symBinAddr: 0x100028958, symSize: 0x20C }
  - { offsetInCU: 0xAA63, offset: 0x1478D, size: 0x8, addend: 0x0, symName: __ZNSt3__18distanceB7v160006INS_13move_iteratorIPiEEEENS_15iterator_traitsIT_E15difference_typeES5_S5_, symObjAddr: 0x24260, symBinAddr: 0x100028B64, symSize: 0x350 }
  - { offsetInCU: 0xAAAE, offset: 0x147D8, size: 0x8, addend: 0x0, symName: __ZNSt3__110__distanceB7v160006INS_13move_iteratorIPiEEEENS_15iterator_traitsIT_E15difference_typeES5_S5_NS_26random_access_iterator_tagE, symObjAddr: 0x246E0, symBinAddr: 0x100028FE4, symSize: 0x274 }
  - { offsetInCU: 0xAB04, offset: 0x1482E, size: 0x8, addend: 0x0, symName: __ZNSt3__1miB7v160006IPiS1_EENS_13move_iteratorIT_E15difference_typeERKS4_RKNS2_IT0_EE, symObjAddr: 0x24954, symBinAddr: 0x100029258, symSize: 0x48 }
  - { offsetInCU: 0xAB53, offset: 0x1487D, size: 0x8, addend: 0x0, symName: __ZNSt3__142__uninitialized_allocator_move_if_noexceptB7v160006INS_9allocatorIiEEPiS3_ivEET1_RT_T0_S7_S4_, symObjAddr: 0x24CD0, symBinAddr: 0x1000295D4, symSize: 0xA4 }
  - { offsetInCU: 0xABD1, offset: 0x148FB, size: 0x8, addend: 0x0, symName: __ZNSt3__1eqB7v160006ERKNS_16__deque_iteratorIiPiRiPS1_lLl1024EEES6_, symObjAddr: 0x24FA4, symBinAddr: 0x1000298A8, symSize: 0xC0 }
  - { offsetInCU: 0xAC0E, offset: 0x14938, size: 0x8, addend: 0x0, symName: __ZNSt3__1eqB7v160006IPiEEbRKNS_11__wrap_iterIT_EES6_, symObjAddr: 0x2525C, symBinAddr: 0x100029B60, symSize: 0x48 }
  - { offsetInCU: 0xAC84, offset: 0x149AE, size: 0x8, addend: 0x0, symName: __ZNSt3__1miB7v160006IPKiS2_EENS_11__wrap_iterIT_E15difference_typeERKS5_RKNS3_IT0_EE, symObjAddr: 0x26638, symBinAddr: 0x10002AF3C, symSize: 0x48 }
  - { offsetInCU: 0xACD0, offset: 0x149FA, size: 0x8, addend: 0x0, symName: __ZNSt3__121__convert_to_integralB7v160006Em, symObjAddr: 0x26DCC, symBinAddr: 0x10002B6D0, symSize: 0x14 }
  - { offsetInCU: 0xACFC, offset: 0x14A26, size: 0x8, addend: 0x0, symName: __ZNSt3__19__advanceB7v160006INS_11__wrap_iterIPiEEEEvRT_NS_15iterator_traitsIS4_E15difference_typeENS_26random_access_iterator_tagE, symObjAddr: 0x26DE0, symBinAddr: 0x10002B6E4, symSize: 0x2C }
  - { offsetInCU: 0xAD46, offset: 0x14A70, size: 0x8, addend: 0x0, symName: __ZNSt3__14sortB7v160006INS_11__wrap_iterIPiEENS_6__lessIiiEEEEvT_S6_T0_, symObjAddr: 0x26E84, symBinAddr: 0x10002B788, symSize: 0x36C }
  - { offsetInCU: 0xADAD, offset: 0x14AD7, size: 0x8, addend: 0x0, symName: __ZNSt3__111__sort_implB7v160006INS_17_ClassicAlgPolicyENS_11__wrap_iterIPiEENS_6__lessIiiEEEEvT0_S7_RT1_, symObjAddr: 0x271F0, symBinAddr: 0x10002BAF4, symSize: 0x5A0 }
  - { offsetInCU: 0xAE61, offset: 0x14B8B, size: 0x8, addend: 0x0, symName: __ZNSt3__123__debug_randomize_rangeB7v160006INS_17_ClassicAlgPolicyENS_11__wrap_iterIPiEES4_EEvT0_T1_, symObjAddr: 0x27790, symBinAddr: 0x10002C094, symSize: 0x264 }
  - { offsetInCU: 0xAEBB, offset: 0x14BE5, size: 0x8, addend: 0x0, symName: __ZNSt3__114__partial_sortB7v160006INS_17_ClassicAlgPolicyENS_6__lessIiiEENS_11__wrap_iterIPiEES6_EET1_S7_S7_T2_RT0_, symObjAddr: 0x279F4, symBinAddr: 0x10002C2F8, symSize: 0x728 }
  - { offsetInCU: 0xAF55, offset: 0x14C7F, size: 0x8, addend: 0x0, symName: __ZNSt3__113__unwrap_iterB7v160006INS_11__wrap_iterIPiEENS_18__unwrap_iter_implIS3_Lb1EEELi0EEEDTclsrT0_8__unwrapclsr3stdE7declvalIT_EEEES7_, symObjAddr: 0x2811C, symBinAddr: 0x10002CA20, symSize: 0x274 }
  - { offsetInCU: 0xAF9E, offset: 0x14CC8, size: 0x8, addend: 0x0, symName: __ZNSt3__119__partial_sort_implB7v160006INS_17_ClassicAlgPolicyERNS_6__lessIiiEENS_11__wrap_iterIPiEES7_EET1_S8_S8_T2_OT0_, symObjAddr: 0x28664, symBinAddr: 0x10002CF68, symSize: 0x730 }
  - { offsetInCU: 0xB047, offset: 0x14D71, size: 0x8, addend: 0x0, symName: __ZNSt3__111__make_heapB7v160006INS_17_ClassicAlgPolicyERNS_6__lessIiiEENS_11__wrap_iterIPiEEEEvT1_S8_OT0_, symObjAddr: 0x28D94, symBinAddr: 0x10002D698, symSize: 0x414 }
  - { offsetInCU: 0xB0F7, offset: 0x14E21, size: 0x8, addend: 0x0, symName: __ZNSt3__1miB7v160006IPiS1_EENS_11__wrap_iterIT_E15difference_typeERKS4_RKNS2_IT0_EE, symObjAddr: 0x291A8, symBinAddr: 0x10002DAAC, symSize: 0x48 }
  - { offsetInCU: 0xB17E, offset: 0x14EA8, size: 0x8, addend: 0x0, symName: __ZNSt3__111__sort_heapB7v160006INS_17_ClassicAlgPolicyERNS_6__lessIiiEENS_11__wrap_iterIPiEEEEvT1_S8_OT0_, symObjAddr: 0x29F78, symBinAddr: 0x10002E87C, symSize: 0x3B8 }
  - { offsetInCU: 0xB21F, offset: 0x14F49, size: 0x8, addend: 0x0, symName: __ZNSt3__19iter_swapB7v160006INS_11__wrap_iterIPiEES3_EEvT_T0_, symObjAddr: 0x2A53C, symBinAddr: 0x10002EE40, symSize: 0x288 }
  - { offsetInCU: 0xB270, offset: 0x14F9A, size: 0x8, addend: 0x0, symName: __ZNSt3__14swapB7v160006IiEEvRT_S2_, symObjAddr: 0x2A7C4, symBinAddr: 0x10002F0C8, symSize: 0x1D4 }
  - { offsetInCU: 0xB2C1, offset: 0x14FEB, size: 0x8, addend: 0x0, symName: __ZNSt3__110__pop_heapB7v160006INS_17_ClassicAlgPolicyENS_6__lessIiiEENS_11__wrap_iterIPiEEEEvT1_S7_RT0_NS_15iterator_traitsIS7_E15difference_typeE, symObjAddr: 0x2A9C4, symBinAddr: 0x10002F2C8, symSize: 0x6E8 }
  - { offsetInCU: 0xB37A, offset: 0x150A4, size: 0x8, addend: 0x0, symName: __ZNSt3__19__sift_upB7v160006INS_17_ClassicAlgPolicyERNS_6__lessIiiEENS_11__wrap_iterIPiEEEEvT1_S8_OT0_NS_15iterator_traitsIS8_E15difference_typeE, symObjAddr: 0x2B66C, symBinAddr: 0x10002FF70, symSize: 0x728 }
  - { offsetInCU: 0xB482, offset: 0x151AC, size: 0x8, addend: 0x0, symName: __ZNSt3__112__to_addressB7v160006INS_11__wrap_iterIPiEEvEENS_5decayIDTclsr19__to_address_helperIT_EE6__callclsr3stdE7declvalIRKS5_EEEEE4typeES7_, symObjAddr: 0x2BF84, symBinAddr: 0x100030888, symSize: 0x24 }
  - { offsetInCU: 0xB563, offset: 0x1528D, size: 0x8, addend: 0x0, symName: __ZNSt3__19__advanceB7v160006INS_16__deque_iteratorIiPiRiPS2_lLl1024EEEEEvRT_NS_15iterator_traitsIS6_E15difference_typeENS_26random_access_iterator_tagE, symObjAddr: 0x2C848, symBinAddr: 0x10003114C, symSize: 0x2C }
  - { offsetInCU: 0xB5AD, offset: 0x152D7, size: 0x8, addend: 0x0, symName: __ZNSt3__14sortB7v160006INS_16__deque_iteratorIiPiRiPS2_lLl1024EEENS_6__lessIiiEEEEvT_S8_T0_, symObjAddr: 0x2CC04, symBinAddr: 0x100031508, symSize: 0x364 }
  - { offsetInCU: 0xB614, offset: 0x1533E, size: 0x8, addend: 0x0, symName: __ZNSt3__111__sort_implB7v160006INS_17_ClassicAlgPolicyENS_16__deque_iteratorIiPiRiPS3_lLl1024EEENS_6__lessIiiEEEEvT0_S9_RT1_, symObjAddr: 0x2CF68, symBinAddr: 0x10003186C, symSize: 0x6D4 }
  - { offsetInCU: 0xB6C8, offset: 0x153F2, size: 0x8, addend: 0x0, symName: __ZNSt3__123__debug_randomize_rangeB7v160006INS_17_ClassicAlgPolicyENS_16__deque_iteratorIiPiRiPS3_lLl1024EEES6_EEvT0_T1_, symObjAddr: 0x2D63C, symBinAddr: 0x100031F40, symSize: 0x268 }
  - { offsetInCU: 0xB722, offset: 0x1544C, size: 0x8, addend: 0x0, symName: __ZNSt3__114__partial_sortB7v160006INS_17_ClassicAlgPolicyENS_6__lessIiiEENS_16__deque_iteratorIiPiRiPS5_lLl1024EEES8_EET1_S9_S9_T2_RT0_, symObjAddr: 0x2D8A4, symBinAddr: 0x1000321A8, symSize: 0x79C }
  - { offsetInCU: 0xB7BC, offset: 0x154E6, size: 0x8, addend: 0x0, symName: __ZNSt3__16__sortIRNS_6__lessIiiEENS_16__deque_iteratorIiPiRiPS5_lLl1024EEEEEvT0_S9_T_, symObjAddr: 0x2E040, symBinAddr: 0x100032944, symSize: 0x3A0 }
  - { offsetInCU: 0xB858, offset: 0x15582, size: 0x8, addend: 0x0, symName: __ZNSt3__113__unwrap_iterB7v160006INS_16__deque_iteratorIiPiRiPS2_lLl1024EEENS_18__unwrap_iter_implIS5_Lb0EEELi0EEEDTclsrT0_8__unwrapclsr3stdE7declvalIT_EEEES9_, symObjAddr: 0x2E3E0, symBinAddr: 0x100032CE4, symSize: 0x2EC }
  - { offsetInCU: 0xB8A1, offset: 0x155CB, size: 0x8, addend: 0x0, symName: __ZNSt3__119__partial_sort_implB7v160006INS_17_ClassicAlgPolicyERNS_6__lessIiiEENS_16__deque_iteratorIiPiRiPS6_lLl1024EEES9_EET1_SA_SA_T2_OT0_, symObjAddr: 0x2E9AC, symBinAddr: 0x1000332B0, symSize: 0x790 }
  - { offsetInCU: 0xB94A, offset: 0x15674, size: 0x8, addend: 0x0, symName: __ZNSt3__111__make_heapB7v160006INS_17_ClassicAlgPolicyERNS_6__lessIiiEENS_16__deque_iteratorIiPiRiPS6_lLl1024EEEEEvT1_SA_OT0_, symObjAddr: 0x2F13C, symBinAddr: 0x100033A40, symSize: 0x3EC }
  - { offsetInCU: 0xB9FA, offset: 0x15724, size: 0x8, addend: 0x0, symName: __ZNSt3__1miB7v160006ERKNS_16__deque_iteratorIiPiRiPS1_lLl1024EEES6_, symObjAddr: 0x2F528, symBinAddr: 0x100033E2C, symSize: 0x28C }
  - { offsetInCU: 0xBA37, offset: 0x15761, size: 0x8, addend: 0x0, symName: __ZNSt3__111__sort_heapB7v160006INS_17_ClassicAlgPolicyERNS_6__lessIiiEENS_16__deque_iteratorIiPiRiPS6_lLl1024EEEEEvT1_SA_OT0_, symObjAddr: 0x3045C, symBinAddr: 0x100034D60, symSize: 0x3C4 }
  - { offsetInCU: 0xBAD8, offset: 0x15802, size: 0x8, addend: 0x0, symName: __ZNSt3__19iter_swapB7v160006INS_16__deque_iteratorIiPiRiPS2_lLl1024EEES5_EEvT_T0_, symObjAddr: 0x30A38, symBinAddr: 0x10003533C, symSize: 0x28C }
  - { offsetInCU: 0xBB29, offset: 0x15853, size: 0x8, addend: 0x0, symName: __ZNSt3__110__pop_heapB7v160006INS_17_ClassicAlgPolicyENS_6__lessIiiEENS_16__deque_iteratorIiPiRiPS5_lLl1024EEEEEvT1_S9_RT0_NS_15iterator_traitsIS9_E15difference_typeE, symObjAddr: 0x30CF0, symBinAddr: 0x1000355F4, symSize: 0x700 }
  - { offsetInCU: 0xBBE2, offset: 0x1590C, size: 0x8, addend: 0x0, symName: __ZNSt3__19__sift_upB7v160006INS_17_ClassicAlgPolicyERNS_6__lessIiiEENS_16__deque_iteratorIiPiRiPS6_lLl1024EEEEEvT1_SA_OT0_NS_15iterator_traitsISA_E15difference_typeE, symObjAddr: 0x31954, symBinAddr: 0x100036258, symSize: 0x744 }
  - { offsetInCU: 0xBC96, offset: 0x159C0, size: 0x8, addend: 0x0, symName: __ZNSt3__17__log2iB7v160006IlEET_S1_, symObjAddr: 0x32098, symBinAddr: 0x10003699C, symSize: 0x54 }
  - { offsetInCU: 0xBD00, offset: 0x15A2A, size: 0x8, addend: 0x0, symName: __ZNSt3__112__libcpp_clzB7v160006Em, symObjAddr: 0x33CC0, symBinAddr: 0x1000385C4, symSize: 0x1C }
  - { offsetInCU: 0xBD2C, offset: 0x15A56, size: 0x8, addend: 0x0, symName: __ZNSt3__124__sort3_maybe_branchlessB7v160006INS_17_ClassicAlgPolicyERNS_6__lessIiiEENS_16__deque_iteratorIiPiRiPS6_lLl1024EEEEENS_9enable_ifIXntsr21__use_branchless_sortIT0_T1_EE5valueEvE4typeESC_SC_SC_SB_, symObjAddr: 0x33CDC, symBinAddr: 0x1000385E0, symSize: 0x434 }
  - { offsetInCU: 0xBDAA, offset: 0x15AD4, size: 0x8, addend: 0x0, symName: __ZNSt3__124__sort4_maybe_branchlessB7v160006INS_17_ClassicAlgPolicyERNS_6__lessIiiEENS_16__deque_iteratorIiPiRiPS6_lLl1024EEEEENS_9enable_ifIXntsr21__use_branchless_sortIT0_T1_EE5valueEvE4typeESC_SC_SC_SC_SB_, symObjAddr: 0x34110, symBinAddr: 0x100038A14, symSize: 0x4EC }
  - { offsetInCU: 0xBE41, offset: 0x15B6B, size: 0x8, addend: 0x0, symName: __ZNSt3__124__sort5_maybe_branchlessB7v160006INS_17_ClassicAlgPolicyERNS_6__lessIiiEENS_16__deque_iteratorIiPiRiPS6_lLl1024EEEEENS_9enable_ifIXntsr21__use_branchless_sortIT0_T1_EE5valueEvE4typeESC_SC_SC_SC_SC_SB_, symObjAddr: 0x345FC, symBinAddr: 0x100038F00, symSize: 0x5C4 }
  - { offsetInCU: 0xBEEC, offset: 0x15C16, size: 0x8, addend: 0x0, symName: __ZNSt3__114__partial_sortB7v160006INS_17_ClassicAlgPolicyERNS_6__lessIiiEENS_16__deque_iteratorIiPiRiPS6_lLl1024EEES9_EET1_SA_SA_T2_RT0_, symObjAddr: 0x3548C, symBinAddr: 0x100039D90, symSize: 0x79C }
  - { offsetInCU: 0xBF86, offset: 0x15CB0, size: 0x8, addend: 0x0, symName: __ZNSt3__119__sort5_wrap_policyB7v160006INS_17_ClassicAlgPolicyERNS_6__lessIiiEENS_16__deque_iteratorIiPiRiPS6_lLl1024EEEEEjT1_SA_SA_SA_SA_T0_, symObjAddr: 0x35C28, symBinAddr: 0x10003A52C, symSize: 0x5D4 }
  - { offsetInCU: 0xC044, offset: 0x15D6E, size: 0x8, addend: 0x0, symName: __ZNSt3__17__sort3B7v160006INS_17_ClassicAlgPolicyERNS_6__lessIiiEENS_16__deque_iteratorIiPiRiPS6_lLl1024EEEEEjT1_SA_SA_T0_, symObjAddr: 0x361FC, symBinAddr: 0x10003AB00, symSize: 0x4C0 }
  - { offsetInCU: 0xC0D1, offset: 0x15DFB, size: 0x8, addend: 0x0, symName: __ZNSt3__1geB7v160006ERKNS_16__deque_iteratorIiPiRiPS1_lLl1024EEES6_, symObjAddr: 0x366BC, symBinAddr: 0x10003AFC0, symSize: 0x34 }
  - { offsetInCU: 0xC10E, offset: 0x15E38, size: 0x8, addend: 0x0, symName: __ZNSt3__1ltB7v160006ERKNS_16__deque_iteratorIiPiRiPS1_lLl1024EEES6_, symObjAddr: 0x366F0, symBinAddr: 0x10003AFF4, symSize: 0x208 }
  - { offsetInCU: 0xC14B, offset: 0x15E75, size: 0x8, addend: 0x0, symName: __ZNSt3__1gtB7v160006ERKNS_16__deque_iteratorIiPiRiPS1_lLl1024EEES6_, symObjAddr: 0x368F8, symBinAddr: 0x10003B1FC, symSize: 0x30 }
  - { offsetInCU: 0xC188, offset: 0x15EB2, size: 0x8, addend: 0x0, symName: __ZNSt3__17__sort4B7v160006INS_17_ClassicAlgPolicyERNS_6__lessIiiEENS_16__deque_iteratorIiPiRiPS6_lLl1024EEEEEjT1_SA_SA_SA_T0_, symObjAddr: 0x37AF0, symBinAddr: 0x10003C3F4, symSize: 0x5B0 }
  - { offsetInCU: 0xC228, offset: 0x15F52, size: 0x8, addend: 0x0, symName: __ZNSt3__17__sort5IRNS_6__lessIiiEENS_16__deque_iteratorIiPiRiPS5_lLl1024EEEEEjT0_S9_S9_S9_S9_T_, symObjAddr: 0x380A0, symBinAddr: 0x10003C9A4, symSize: 0x6D0 }
  - { offsetInCU: 0xC61B, offset: 0x16345, size: 0x8, addend: 0x0, symName: __ZSt28__throw_bad_array_new_lengthB7v160006v, symObjAddr: 0x13A54, symBinAddr: 0x100018358, symSize: 0x38 }
  - { offsetInCU: 0xCBD5, offset: 0x168FF, size: 0x8, addend: 0x0, symName: __ZNSt3__16vectorIiNS_9allocatorIiEEE26__swap_out_circular_bufferERNS_14__split_bufferIiRS2_EE, symObjAddr: 0x17A88, symBinAddr: 0x10001C38C, symSize: 0x574 }
  - { offsetInCU: 0xCC45, offset: 0x1696F, size: 0x8, addend: 0x0, symName: __ZNSt3__16vectorIiNS_9allocatorIiEEE26__swap_out_circular_bufferERNS_14__split_bufferIiRS2_EEPi, symObjAddr: 0x20418, symBinAddr: 0x100024D1C, symSize: 0x680 }
  - { offsetInCU: 0xEB30, offset: 0x1885A, size: 0x8, addend: 0x0, symName: __ZN8PmergeMeC2Ev, symObjAddr: 0x0, symBinAddr: 0x100006AAC, symSize: 0xDC }
  - { offsetInCU: 0xEB5B, offset: 0x18885, size: 0x8, addend: 0x0, symName: __ZNSt3__15dequeIiNS_9allocatorIiEEEC1B7v160006Ev, symObjAddr: 0xDC, symBinAddr: 0x100006B88, symSize: 0x2C }
  - { offsetInCU: 0xEB83, offset: 0x188AD, size: 0x8, addend: 0x0, symName: __ZNSt3__16vectorIiNS_9allocatorIiEEEC1B7v160006Ev, symObjAddr: 0x108, symBinAddr: 0x100006BB4, symSize: 0x2C }
  - { offsetInCU: 0xEBAB, offset: 0x188D5, size: 0x8, addend: 0x0, symName: __ZNSt3__16vectorIiNS_9allocatorIiEEED1B7v160006Ev, symObjAddr: 0x134, symBinAddr: 0x100006BE0, symSize: 0x2C }
  - { offsetInCU: 0xEBD3, offset: 0x188FD, size: 0x8, addend: 0x0, symName: __ZNSt3__15dequeIiNS_9allocatorIiEEED1B7v160006Ev, symObjAddr: 0x16C, symBinAddr: 0x100006C0C, symSize: 0x2C }
  - { offsetInCU: 0xEBFB, offset: 0x18925, size: 0x8, addend: 0x0, symName: __ZN8PmergeMeC1Ev, symObjAddr: 0x198, symBinAddr: 0x100006C38, symSize: 0x2C }
  - { offsetInCU: 0xEC26, offset: 0x18950, size: 0x8, addend: 0x0, symName: __ZN8PmergeMeC2ENSt3__112basic_stringIcNS0_11char_traitsIcEENS0_9allocatorIcEEEE, symObjAddr: 0x1C4, symBinAddr: 0x100006C64, symSize: 0xE30 }
  - { offsetInCU: 0xEC9F, offset: 0x189C9, size: 0x8, addend: 0x0, symName: __ZNKSt3__112basic_stringIcNS_11char_traitsIcEENS_9allocatorIcEEEixB7v160006Em, symObjAddr: 0xFF4, symBinAddr: 0x100007A94, symSize: 0x30 }
  - { offsetInCU: 0xECD2, offset: 0x189FC, size: 0x8, addend: 0x0, symName: __ZNSt3__15dequeIiNS_9allocatorIiEEE9push_backERKi, symObjAddr: 0x116C, symBinAddr: 0x100007AC4, symSize: 0x2C0 }
  - { offsetInCU: 0xED19, offset: 0x18A43, size: 0x8, addend: 0x0, symName: __ZNSt3__16vectorIiNS_9allocatorIiEEE9push_backB7v160006EOi, symObjAddr: 0x142C, symBinAddr: 0x100007D84, symSize: 0xE0 }
  - { offsetInCU: 0xED4E, offset: 0x18A78, size: 0x8, addend: 0x0, symName: __ZNSt3__15dequeIiNS_9allocatorIiEEE10push_frontERKi, symObjAddr: 0x150C, symBinAddr: 0x100007E64, symSize: 0x304 }
  - { offsetInCU: 0xED95, offset: 0x18ABF, size: 0x8, addend: 0x0, symName: __ZNSt3__16vectorIiNS_9allocatorIiEEE6insertENS_11__wrap_iterIPKiEEOi, symObjAddr: 0x1810, symBinAddr: 0x100008168, symSize: 0x7E0 }
  - { offsetInCU: 0xEE19, offset: 0x18B43, size: 0x8, addend: 0x0, symName: __ZNSt3__16vectorIiNS_9allocatorIiEEE5beginB7v160006Ev, symObjAddr: 0x1FF0, symBinAddr: 0x100008948, symSize: 0x268 }
  - { offsetInCU: 0xEE4A, offset: 0x18B74, size: 0x8, addend: 0x0, symName: __ZNSt3__111__wrap_iterIPKiEC1B7v160006IPiEERKNS0_IT_EEPNS_9enable_ifIXsr14is_convertibleIS6_S2_EE5valueEvE4typeE, symObjAddr: 0x2258, symBinAddr: 0x100008BB0, symSize: 0x3C }
  - { offsetInCU: 0xEE93, offset: 0x18BBD, size: 0x8, addend: 0x0, symName: __ZNSt3__15dequeIiNS_9allocatorIiEEE5beginB7v160006Ev, symObjAddr: 0x2294, symBinAddr: 0x100008BEC, symSize: 0x358 }
  - { offsetInCU: 0xEEC8, offset: 0x18BF2, size: 0x8, addend: 0x0, symName: __ZNSt3__15dequeIiNS_9allocatorIiEEE3endB7v160006Ev, symObjAddr: 0x2620, symBinAddr: 0x100008F78, symSize: 0x300 }
  - { offsetInCU: 0xEF0D, offset: 0x18C37, size: 0x8, addend: 0x0, symName: __ZNKSt3__116__deque_iteratorIiPiRiPS1_lLl1024EEdeB7v160006Ev, symObjAddr: 0x2920, symBinAddr: 0x100009278, symSize: 0x64 }
  - { offsetInCU: 0xEF31, offset: 0x18C5B, size: 0x8, addend: 0x0, symName: __ZNSt3__116__deque_iteratorIiPiRiPS1_lLl1024EEppB7v160006Ei, symObjAddr: 0x2984, symBinAddr: 0x1000092DC, symSize: 0x218 }
  - { offsetInCU: 0xEF76, offset: 0x18CA0, size: 0x8, addend: 0x0, symName: __ZN8PmergeMeC1ENSt3__112basic_stringIcNS0_11char_traitsIcEENS0_9allocatorIcEEEE, symObjAddr: 0x2B9C, symBinAddr: 0x1000094F4, symSize: 0x34 }
  - { offsetInCU: 0xEFB0, offset: 0x18CDA, size: 0x8, addend: 0x0, symName: __ZN8PmergeMeD2Ev, symObjAddr: 0x2BD0, symBinAddr: 0x100009528, symSize: 0xD8 }
  - { offsetInCU: 0xEFDA, offset: 0x18D04, size: 0x8, addend: 0x0, symName: __ZN8PmergeMeD1Ev, symObjAddr: 0x2CA8, symBinAddr: 0x100009600, symSize: 0x2C }
  - { offsetInCU: 0xF004, offset: 0x18D2E, size: 0x8, addend: 0x0, symName: __ZN8PmergeMe11mergeVectorEv, symObjAddr: 0x2CD4, symBinAddr: 0x10000962C, symSize: 0x16E4 }
  - { offsetInCU: 0xF0EB, offset: 0x18E15, size: 0x8, addend: 0x0, symName: __ZNSt3__16vectorIiNS_9allocatorIiEEE3endB7v160006Ev, symObjAddr: 0x43EC, symBinAddr: 0x10000AD44, symSize: 0x26C }
  - { offsetInCU: 0xF112, offset: 0x18E3C, size: 0x8, addend: 0x0, symName: __ZNKSt3__111__wrap_iterIPiEdeB7v160006Ev, symObjAddr: 0x4658, symBinAddr: 0x10000AFB0, symSize: 0x60 }
  - { offsetInCU: 0xF136, offset: 0x18E60, size: 0x8, addend: 0x0, symName: __ZNSt3__111__wrap_iterIPiEppB7v160006Ei, symObjAddr: 0x46B8, symBinAddr: 0x10000B010, symSize: 0x20C }
  - { offsetInCU: 0xF177, offset: 0x18EA1, size: 0x8, addend: 0x0, symName: __Z9is_sortedINSt3__16vectorIiNS0_9allocatorIiEEEEEbRKT_, symObjAddr: 0x48C4, symBinAddr: 0x10000B21C, symSize: 0x1E8 }
  - { offsetInCU: 0xF1CA, offset: 0x18EF4, size: 0x8, addend: 0x0, symName: __ZNKSt3__15dequeIiNS_9allocatorIiEEE4sizeB7v160006Ev, symObjAddr: 0x4AAC, symBinAddr: 0x10000B404, symSize: 0x6C }
  - { offsetInCU: 0xF1EE, offset: 0x18F18, size: 0x8, addend: 0x0, symName: __ZNSt3__16vectorIiNS_9allocatorIiEEE4backB7v160006Ev, symObjAddr: 0x4B18, symBinAddr: 0x10000B470, symSize: 0x68 }
  - { offsetInCU: 0xF212, offset: 0x18F3C, size: 0x8, addend: 0x0, symName: __ZNSt3__16vectorIiNS_9allocatorIiEEE8pop_backEv, symObjAddr: 0x4B80, symBinAddr: 0x10000B4D8, symSize: 0x6C }
  - { offsetInCU: 0xF238, offset: 0x18F62, size: 0x8, addend: 0x0, symName: __ZNKSt3__16vectorIiNS_9allocatorIiEEE5emptyB7v160006Ev, symObjAddr: 0x4BEC, symBinAddr: 0x10000B544, symSize: 0xB0 }
  - { offsetInCU: 0xF25C, offset: 0x18F86, size: 0x8, addend: 0x0, symName: __ZNSt3__16vectorIiNS_9allocatorIiEEE5frontB7v160006Ev, symObjAddr: 0x4C9C, symBinAddr: 0x10000B5F4, symSize: 0x60 }
  - { offsetInCU: 0xF280, offset: 0x18FAA, size: 0x8, addend: 0x0, symName: __ZNSt3__16vectorIiNS_9allocatorIiEEE6insertENS_11__wrap_iterIPKiEERS5_, symObjAddr: 0x4CFC, symBinAddr: 0x10000B654, symSize: 0x878 }
  - { offsetInCU: 0xF323, offset: 0x1904D, size: 0x8, addend: 0x0, symName: __ZNSt3__16vectorIiNS_9allocatorIiEEE9push_backB7v160006ERKi, symObjAddr: 0x5574, symBinAddr: 0x10000BECC, symSize: 0xE0 }
  - { offsetInCU: 0xF358, offset: 0x19082, size: 0x8, addend: 0x0, symName: __ZNSt3__16vectorIiNS_9allocatorIiEEE5eraseB7v160006ENS_11__wrap_iterIPKiEE, symObjAddr: 0x5654, symBinAddr: 0x10000BFAC, symSize: 0x410 }
  - { offsetInCU: 0xF3B2, offset: 0x190DC, size: 0x8, addend: 0x0, symName: __ZNKSt3__16vectorIiNS_9allocatorIiEEE4sizeB7v160006Ev, symObjAddr: 0x5AB4, symBinAddr: 0x10000C40C, symSize: 0xB0 }
  - { offsetInCU: 0xF3D6, offset: 0x19100, size: 0x8, addend: 0x0, symName: __ZNSt3__113basic_ostreamIcNS_11char_traitsIcEEElsB7v160006EPFRNS_8ios_baseES5_E, symObjAddr: 0x5FCC, symBinAddr: 0x10000C924, symSize: 0xC0 }
  - { offsetInCU: 0xF408, offset: 0x19132, size: 0x8, addend: 0x0, symName: __ZN8PmergeMe10mergeDequeEv, symObjAddr: 0x62DC, symBinAddr: 0x10000CC34, symSize: 0xDDC }
  - { offsetInCU: 0xF4DB, offset: 0x19205, size: 0x8, addend: 0x0, symName: __Z9is_sortedINSt3__15dequeIiNS0_9allocatorIiEEEEEbRKT_, symObjAddr: 0x70B8, symBinAddr: 0x10000DA10, symSize: 0x1E8 }
  - { offsetInCU: 0xF52E, offset: 0x19258, size: 0x8, addend: 0x0, symName: __ZNSt3__15dequeIiNS_9allocatorIiEEE4backEv, symObjAddr: 0x72A0, symBinAddr: 0x10000DBF8, symSize: 0xEC }
  - { offsetInCU: 0xF563, offset: 0x1928D, size: 0x8, addend: 0x0, symName: __ZNSt3__15dequeIiNS_9allocatorIiEEE8pop_backEv, symObjAddr: 0x738C, symBinAddr: 0x10000DCE4, symSize: 0x16C }
  - { offsetInCU: 0xF5A7, offset: 0x192D1, size: 0x8, addend: 0x0, symName: __ZNSt3__15dequeIiNS_9allocatorIiEEE5frontEv, symObjAddr: 0x74F8, symBinAddr: 0x10000DE50, symSize: 0x118 }
  - { offsetInCU: 0xF5CD, offset: 0x192F7, size: 0x8, addend: 0x0, symName: __ZNKSt3__15dequeIiNS_9allocatorIiEEE5emptyB7v160006Ev, symObjAddr: 0x7610, symBinAddr: 0x10000DF68, symSize: 0x30 }
  - { offsetInCU: 0xF5F1, offset: 0x1931B, size: 0x8, addend: 0x0, symName: __ZNSt3__15dequeIiNS_9allocatorIiEEE9pop_frontEv, symObjAddr: 0x7640, symBinAddr: 0x10000DF98, symSize: 0x1D8 }
  - { offsetInCU: 0xF626, offset: 0x19350, size: 0x8, addend: 0x0, symName: __ZNSt3__15dequeIiNS_9allocatorIiEEE5clearEv, symObjAddr: 0x7BBC, symBinAddr: 0x10000E514, symSize: 0x4EC }
  - { offsetInCU: 0xF692, offset: 0x193BC, size: 0x8, addend: 0x0, symName: __ZNSt3__18ios_base4setfB7v160006Ejj, symObjAddr: 0x80A8, symBinAddr: 0x10000EA00, symSize: 0x128 }
  - { offsetInCU: 0xF6E5, offset: 0x1940F, size: 0x8, addend: 0x0, symName: __ZNSt3__18ios_base6unsetfB7v160006Ej, symObjAddr: 0x81D0, symBinAddr: 0x10000EB28, symSize: 0xA4 }
  - { offsetInCU: 0xF71A, offset: 0x19444, size: 0x8, addend: 0x0, symName: __ZNSt3__18__iom_t5C1B7v160006Ei, symObjAddr: 0x8274, symBinAddr: 0x10000EBCC, symSize: 0x34 }
  - { offsetInCU: 0xF750, offset: 0x1947A, size: 0x8, addend: 0x0, symName: __ZNSt3__18__iom_t5C2B7v160006Ei, symObjAddr: 0x82A8, symBinAddr: 0x10000EC00, symSize: 0x98 }
  - { offsetInCU: 0xF786, offset: 0x194B0, size: 0x8, addend: 0x0, symName: __ZNSt3__15dequeIiNS_9allocatorIiEEEC2B7v160006Ev, symObjAddr: 0x8340, symBinAddr: 0x10000EC98, symSize: 0x36C }
  - { offsetInCU: 0xF7AF, offset: 0x194D9, size: 0x8, addend: 0x0, symName: __ZNSt3__114__split_bufferIPiNS_9allocatorIS1_EEEC1Ev, symObjAddr: 0x86AC, symBinAddr: 0x10000F004, symSize: 0x2C }
  - { offsetInCU: 0xF7DF, offset: 0x19509, size: 0x8, addend: 0x0, symName: __ZNSt3__117__compressed_pairImNS_9allocatorIiEEEC1B7v160006IiNS_18__default_init_tagEEEOT_OT0_, symObjAddr: 0x86D8, symBinAddr: 0x10000F030, symSize: 0x3C }
  - { offsetInCU: 0xF835, offset: 0x1955F, size: 0x8, addend: 0x0, symName: __ZNSt3__114__split_bufferIPiNS_9allocatorIS1_EEED1Ev, symObjAddr: 0x8714, symBinAddr: 0x10000F06C, symSize: 0x2C }
  - { offsetInCU: 0xF860, offset: 0x1958A, size: 0x8, addend: 0x0, symName: __ZNSt3__114__split_bufferIPiNS_9allocatorIS1_EEEC2Ev, symObjAddr: 0x8740, symBinAddr: 0x10000F098, symSize: 0x30C }
  - { offsetInCU: 0xF891, offset: 0x195BB, size: 0x8, addend: 0x0, symName: __ZNSt3__117__compressed_pairIPPiNS_9allocatorIS1_EEEC1B7v160006IDnNS_18__default_init_tagEEEOT_OT0_, symObjAddr: 0x8A4C, symBinAddr: 0x10000F3A4, symSize: 0x3C }
  - { offsetInCU: 0xF8E7, offset: 0x19611, size: 0x8, addend: 0x0, symName: __ZNSt3__117__compressed_pairIPPiNS_9allocatorIS1_EEEC2B7v160006IDnNS_18__default_init_tagEEEOT_OT0_, symObjAddr: 0x8A88, symBinAddr: 0x10000F3E0, symSize: 0x40 }
  - { offsetInCU: 0xF93D, offset: 0x19667, size: 0x8, addend: 0x0, symName: __ZNSt3__122__compressed_pair_elemIPPiLi0ELb0EEC2B7v160006IDnvEEOT_, symObjAddr: 0x8AC8, symBinAddr: 0x10000F420, symSize: 0x64 }
  - { offsetInCU: 0xF97E, offset: 0x196A8, size: 0x8, addend: 0x0, symName: __ZNSt3__122__compressed_pair_elemINS_9allocatorIPiEELi1ELb1EEC2B7v160006ENS_18__default_init_tagE, symObjAddr: 0x8B2C, symBinAddr: 0x10000F484, symSize: 0x2C }
  - { offsetInCU: 0xF9B0, offset: 0x196DA, size: 0x8, addend: 0x0, symName: __ZNSt3__19allocatorIPiEC2B7v160006Ev, symObjAddr: 0x8B58, symBinAddr: 0x10000F4B0, symSize: 0x2C }
  - { offsetInCU: 0xF9D8, offset: 0x19702, size: 0x8, addend: 0x0, symName: __ZNSt3__116__non_trivial_ifILb1ENS_9allocatorIPiEEEC2B7v160006Ev, symObjAddr: 0x8B84, symBinAddr: 0x10000F4DC, symSize: 0x14 }
  - { offsetInCU: 0xFA00, offset: 0x1972A, size: 0x8, addend: 0x0, symName: __ZNSt3__117__compressed_pairImNS_9allocatorIiEEEC2B7v160006IiNS_18__default_init_tagEEEOT_OT0_, symObjAddr: 0x8B98, symBinAddr: 0x10000F4F0, symSize: 0x40 }
  - { offsetInCU: 0xFA56, offset: 0x19780, size: 0x8, addend: 0x0, symName: __ZNSt3__122__compressed_pair_elemImLi0ELb0EEC2B7v160006IivEEOT_, symObjAddr: 0x8BD8, symBinAddr: 0x10000F530, symSize: 0xD8 }
  - { offsetInCU: 0xFA97, offset: 0x197C1, size: 0x8, addend: 0x0, symName: __ZNSt3__122__compressed_pair_elemINS_9allocatorIiEELi1ELb1EEC2B7v160006ENS_18__default_init_tagE, symObjAddr: 0x8CB0, symBinAddr: 0x10000F608, symSize: 0x2C }
  - { offsetInCU: 0xFAC9, offset: 0x197F3, size: 0x8, addend: 0x0, symName: __ZNSt3__19allocatorIiEC2B7v160006Ev, symObjAddr: 0x8CDC, symBinAddr: 0x10000F634, symSize: 0x2C }
  - { offsetInCU: 0xFAF1, offset: 0x1981B, size: 0x8, addend: 0x0, symName: __ZNSt3__116__non_trivial_ifILb1ENS_9allocatorIiEEEC2B7v160006Ev, symObjAddr: 0x8D08, symBinAddr: 0x10000F660, symSize: 0x14 }
  - { offsetInCU: 0xFB19, offset: 0x19843, size: 0x8, addend: 0x0, symName: __ZNSt3__114__split_bufferIPiNS_9allocatorIS1_EEED2Ev, symObjAddr: 0x8D1C, symBinAddr: 0x10000F674, symSize: 0xEC }
  - { offsetInCU: 0xFB44, offset: 0x1986E, size: 0x8, addend: 0x0, symName: __ZNSt3__114__split_bufferIPiNS_9allocatorIS1_EEE5clearB7v160006Ev, symObjAddr: 0x8E08, symBinAddr: 0x10000F760, symSize: 0x68 }
  - { offsetInCU: 0xFB68, offset: 0x19892, size: 0x8, addend: 0x0, symName: __ZNSt3__116allocator_traitsINS_9allocatorIPiEEE10deallocateB7v160006ERS3_PS2_m, symObjAddr: 0x8E70, symBinAddr: 0x10000F7C8, symSize: 0x34 }
  - { offsetInCU: 0xFBA9, offset: 0x198D3, size: 0x8, addend: 0x0, symName: __ZNSt3__114__split_bufferIPiNS_9allocatorIS1_EEE7__allocB7v160006Ev, symObjAddr: 0x8EA4, symBinAddr: 0x10000F7FC, symSize: 0x28 }
  - { offsetInCU: 0xFBCD, offset: 0x198F7, size: 0x8, addend: 0x0, symName: __ZNKSt3__114__split_bufferIPiNS_9allocatorIS1_EEE8capacityB7v160006Ev, symObjAddr: 0x8ECC, symBinAddr: 0x10000F824, symSize: 0xBC }
  - { offsetInCU: 0xFBF1, offset: 0x1991B, size: 0x8, addend: 0x0, symName: __ZNSt3__114__split_bufferIPiNS_9allocatorIS1_EEE17__destruct_at_endB7v160006EPS1_, symObjAddr: 0x8F88, symBinAddr: 0x10000F8E0, symSize: 0x2C }
  - { offsetInCU: 0xFC23, offset: 0x1994D, size: 0x8, addend: 0x0, symName: __ZNSt3__114__split_bufferIPiNS_9allocatorIS1_EEE17__destruct_at_endB7v160006EPS1_NS_17integral_constantIbLb0EEE, symObjAddr: 0x8FB4, symBinAddr: 0x10000F90C, symSize: 0x120 }
  - { offsetInCU: 0xFC61, offset: 0x1998B, size: 0x8, addend: 0x0, symName: __ZNSt3__116allocator_traitsINS_9allocatorIPiEEE7destroyB7v160006IS2_vEEvRS3_PT_, symObjAddr: 0x90D4, symBinAddr: 0x10000FA2C, symSize: 0x2C }
  - { offsetInCU: 0xFC9E, offset: 0x199C8, size: 0x8, addend: 0x0, symName: __ZNSt3__19allocatorIPiE7destroyB7v160006EPS1_, symObjAddr: 0x9114, symBinAddr: 0x10000FA6C, symSize: 0x14 }
  - { offsetInCU: 0xFCD0, offset: 0x199FA, size: 0x8, addend: 0x0, symName: __ZNSt3__19allocatorIPiE10deallocateB7v160006EPS1_m, symObjAddr: 0x9128, symBinAddr: 0x10000FA80, symSize: 0x7C }
  - { offsetInCU: 0xFD10, offset: 0x19A3A, size: 0x8, addend: 0x0, symName: __ZNSt3__117__compressed_pairIPPiNS_9allocatorIS1_EEE6secondB7v160006Ev, symObjAddr: 0x922C, symBinAddr: 0x10000FB78, symSize: 0x24 }
  - { offsetInCU: 0xFD34, offset: 0x19A5E, size: 0x8, addend: 0x0, symName: __ZNSt3__122__compressed_pair_elemINS_9allocatorIPiEELi1ELb1EE5__getB7v160006Ev, symObjAddr: 0x9250, symBinAddr: 0x10000FB9C, symSize: 0x14 }
  - { offsetInCU: 0xFD58, offset: 0x19A82, size: 0x8, addend: 0x0, symName: __ZNKSt3__114__split_bufferIPiNS_9allocatorIS1_EEE9__end_capB7v160006Ev, symObjAddr: 0x9264, symBinAddr: 0x10000FBB0, symSize: 0x28 }
  - { offsetInCU: 0xFD7C, offset: 0x19AA6, size: 0x8, addend: 0x0, symName: __ZNKSt3__117__compressed_pairIPPiNS_9allocatorIS1_EEE5firstB7v160006Ev, symObjAddr: 0x928C, symBinAddr: 0x10000FBD8, symSize: 0x24 }
  - { offsetInCU: 0xFDA0, offset: 0x19ACA, size: 0x8, addend: 0x0, symName: __ZNKSt3__122__compressed_pair_elemIPPiLi0ELb0EE5__getB7v160006Ev, symObjAddr: 0x92B0, symBinAddr: 0x10000FBFC, symSize: 0x14 }
  - { offsetInCU: 0xFDC4, offset: 0x19AEE, size: 0x8, addend: 0x0, symName: __ZNSt3__16vectorIiNS_9allocatorIiEEEC2B7v160006Ev, symObjAddr: 0x92C4, symBinAddr: 0x10000FC10, symSize: 0x2DC }
  - { offsetInCU: 0xFDED, offset: 0x19B17, size: 0x8, addend: 0x0, symName: __ZNSt3__117__compressed_pairIPiNS_9allocatorIiEEEC1B7v160006IDnNS_18__default_init_tagEEEOT_OT0_, symObjAddr: 0x95A0, symBinAddr: 0x10000FEEC, symSize: 0x3C }
  - { offsetInCU: 0xFE43, offset: 0x19B6D, size: 0x8, addend: 0x0, symName: __ZNSt3__117__compressed_pairIPiNS_9allocatorIiEEEC2B7v160006IDnNS_18__default_init_tagEEEOT_OT0_, symObjAddr: 0x95EC, symBinAddr: 0x10000FF38, symSize: 0x40 }
  - { offsetInCU: 0xFE99, offset: 0x19BC3, size: 0x8, addend: 0x0, symName: __ZNSt3__122__compressed_pair_elemIPiLi0ELb0EEC2B7v160006IDnvEEOT_, symObjAddr: 0x962C, symBinAddr: 0x10000FF78, symSize: 0x64 }
  - { offsetInCU: 0xFEDA, offset: 0x19C04, size: 0x8, addend: 0x0, symName: __ZNSt3__15dequeIiNS_9allocatorIiEEED2B7v160006Ev, symObjAddr: 0x9690, symBinAddr: 0x10000FFDC, symSize: 0xE8 }
  - { offsetInCU: 0xFF2F, offset: 0x19C59, size: 0x8, addend: 0x0, symName: __ZNSt3__114__split_bufferIPiNS_9allocatorIS1_EEE5beginB7v160006Ev, symObjAddr: 0x9778, symBinAddr: 0x1000100C4, symSize: 0x64 }
  - { offsetInCU: 0xFF53, offset: 0x19C7D, size: 0x8, addend: 0x0, symName: __ZNSt3__114__split_bufferIPiNS_9allocatorIS1_EEE3endB7v160006Ev, symObjAddr: 0x97DC, symBinAddr: 0x100010128, symSize: 0x64 }
  - { offsetInCU: 0xFF77, offset: 0x19CA1, size: 0x8, addend: 0x0, symName: __ZNSt3__116allocator_traitsINS_9allocatorIiEEE10deallocateB7v160006ERS2_Pim, symObjAddr: 0x9840, symBinAddr: 0x10001018C, symSize: 0x34 }
  - { offsetInCU: 0xFFB8, offset: 0x19CE2, size: 0x8, addend: 0x0, symName: __ZNSt3__15dequeIiNS_9allocatorIiEEE7__allocB7v160006Ev, symObjAddr: 0x9874, symBinAddr: 0x1000101C0, symSize: 0x28 }
  - { offsetInCU: 0xFFDC, offset: 0x19D06, size: 0x8, addend: 0x0, symName: __ZNSt3__19allocatorIiE10deallocateB7v160006EPim, symObjAddr: 0x989C, symBinAddr: 0x1000101E8, symSize: 0x7C }
  - { offsetInCU: 0x1001C, offset: 0x19D46, size: 0x8, addend: 0x0, symName: __ZNSt3__117__compressed_pairImNS_9allocatorIiEEE6secondB7v160006Ev, symObjAddr: 0x9918, symBinAddr: 0x100010264, symSize: 0x24 }
  - { offsetInCU: 0x10040, offset: 0x19D6A, size: 0x8, addend: 0x0, symName: __ZNSt3__122__compressed_pair_elemINS_9allocatorIiEELi1ELb1EE5__getB7v160006Ev, symObjAddr: 0x993C, symBinAddr: 0x100010288, symSize: 0x14 }
  - { offsetInCU: 0x10064, offset: 0x19D8E, size: 0x8, addend: 0x0, symName: __ZNSt3__16vectorIiNS_9allocatorIiEEED2B7v160006Ev, symObjAddr: 0x9950, symBinAddr: 0x10001029C, symSize: 0x1E0 }
  - { offsetInCU: 0x1008D, offset: 0x19DB7, size: 0x8, addend: 0x0, symName: __ZNSt3__16vectorIiNS_9allocatorIiEEE16__destroy_vectorC1ERS3_, symObjAddr: 0x9B30, symBinAddr: 0x10001047C, symSize: 0x34 }
  - { offsetInCU: 0x100C4, offset: 0x19DEE, size: 0x8, addend: 0x0, symName: __ZNSt3__16vectorIiNS_9allocatorIiEEE16__destroy_vectorclB7v160006Ev, symObjAddr: 0x9B64, symBinAddr: 0x1000104B0, symSize: 0x264 }
  - { offsetInCU: 0x100E8, offset: 0x19E12, size: 0x8, addend: 0x0, symName: __ZNSt3__16vectorIiNS_9allocatorIiEEE16__destroy_vectorC2ERS3_, symObjAddr: 0x9DC8, symBinAddr: 0x100010714, symSize: 0x70 }
  - { offsetInCU: 0x1011F, offset: 0x19E49, size: 0x8, addend: 0x0, symName: __ZNKSt3__16vectorIiNS_9allocatorIiEEE17__annotate_deleteB7v160006Ev, symObjAddr: 0x9E38, symBinAddr: 0x100010784, symSize: 0xE0 }
  - { offsetInCU: 0x10143, offset: 0x19E6D, size: 0x8, addend: 0x0, symName: __ZNSt3__16vectorIiNS_9allocatorIiEEE7__clearB7v160006Ev, symObjAddr: 0x9F28, symBinAddr: 0x100010874, symSize: 0x64 }
  - { offsetInCU: 0x10167, offset: 0x19E91, size: 0x8, addend: 0x0, symName: __ZNSt3__16vectorIiNS_9allocatorIiEEE7__allocB7v160006Ev, symObjAddr: 0x9F8C, symBinAddr: 0x1000108D8, symSize: 0x28 }
  - { offsetInCU: 0x1018B, offset: 0x19EB5, size: 0x8, addend: 0x0, symName: __ZNKSt3__16vectorIiNS_9allocatorIiEEE8capacityB7v160006Ev, symObjAddr: 0x9FB4, symBinAddr: 0x100010900, symSize: 0xBC }
  - { offsetInCU: 0x101AF, offset: 0x19ED9, size: 0x8, addend: 0x0, symName: __ZNKSt3__16vectorIiNS_9allocatorIiEEE31__annotate_contiguous_containerEPKvS5_S5_S5_, symObjAddr: 0xA070, symBinAddr: 0x1000109BC, symSize: 0x64 }
  - { offsetInCU: 0x1020F, offset: 0x19F39, size: 0x8, addend: 0x0, symName: __ZNKSt3__16vectorIiNS_9allocatorIiEEE4dataB7v160006Ev, symObjAddr: 0xA0D4, symBinAddr: 0x100010A20, symSize: 0x64 }
  - { offsetInCU: 0x10233, offset: 0x19F5D, size: 0x8, addend: 0x0, symName: __ZNSt3__16vectorIiNS_9allocatorIiEEE22__base_destruct_at_endB7v160006EPi, symObjAddr: 0xA14C, symBinAddr: 0x100010A98, symSize: 0x128 }
  - { offsetInCU: 0x10275, offset: 0x19F9F, size: 0x8, addend: 0x0, symName: __ZNSt3__116allocator_traitsINS_9allocatorIiEEE7destroyB7v160006IivEEvRS2_PT_, symObjAddr: 0xA274, symBinAddr: 0x100010BC0, symSize: 0x2C }
  - { offsetInCU: 0x102B2, offset: 0x19FDC, size: 0x8, addend: 0x0, symName: __ZNSt3__19allocatorIiE7destroyB7v160006EPi, symObjAddr: 0xA2A0, symBinAddr: 0x100010BEC, symSize: 0x14 }
  - { offsetInCU: 0x102E4, offset: 0x1A00E, size: 0x8, addend: 0x0, symName: __ZNSt3__117__compressed_pairIPiNS_9allocatorIiEEE6secondB7v160006Ev, symObjAddr: 0xA2B4, symBinAddr: 0x100010C00, symSize: 0x24 }
  - { offsetInCU: 0x10308, offset: 0x1A032, size: 0x8, addend: 0x0, symName: __ZNKSt3__16vectorIiNS_9allocatorIiEEE9__end_capB7v160006Ev, symObjAddr: 0xA2D8, symBinAddr: 0x100010C24, symSize: 0x28 }
  - { offsetInCU: 0x1032C, offset: 0x1A056, size: 0x8, addend: 0x0, symName: __ZNKSt3__117__compressed_pairIPiNS_9allocatorIiEEE5firstB7v160006Ev, symObjAddr: 0xA300, symBinAddr: 0x100010C4C, symSize: 0x24 }
  - { offsetInCU: 0x10350, offset: 0x1A07A, size: 0x8, addend: 0x0, symName: __ZNKSt3__122__compressed_pair_elemIPiLi0ELb0EE5__getB7v160006Ev, symObjAddr: 0xA324, symBinAddr: 0x100010C70, symSize: 0x14 }
  - { offsetInCU: 0x10397, offset: 0x1A0C1, size: 0x8, addend: 0x0, symName: __ZNKSt3__15dequeIiNS_9allocatorIiEEE12__back_spareB7v160006Ev, symObjAddr: 0xC380, symBinAddr: 0x100010C84, symSize: 0x90 }
  - { offsetInCU: 0x103BB, offset: 0x1A0E5, size: 0x8, addend: 0x0, symName: __ZNSt3__15dequeIiNS_9allocatorIiEEE19__add_back_capacityEv, symObjAddr: 0xC410, symBinAddr: 0x100010D14, symSize: 0xA1C }
  - { offsetInCU: 0x10472, offset: 0x1A19C, size: 0x8, addend: 0x0, symName: __ZNSt3__116allocator_traitsINS_9allocatorIiEEE9constructB7v160006IiJRKiEvEEvRS2_PT_DpOT0_, symObjAddr: 0xCE2C, symBinAddr: 0x100011730, symSize: 0x34 }
  - { offsetInCU: 0x104CA, offset: 0x1A1F4, size: 0x8, addend: 0x0, symName: __ZNSt3__15dequeIiNS_9allocatorIiEEE6__sizeB7v160006Ev, symObjAddr: 0xCE60, symBinAddr: 0x100011764, symSize: 0x28 }
  - { offsetInCU: 0x104EE, offset: 0x1A218, size: 0x8, addend: 0x0, symName: __ZNKSt3__15dequeIiNS_9allocatorIiEEE10__capacityB7v160006Ev, symObjAddr: 0xCE88, symBinAddr: 0x10001178C, symSize: 0x60 }
  - { offsetInCU: 0x10512, offset: 0x1A23C, size: 0x8, addend: 0x0, symName: __ZNKSt3__114__split_bufferIPiNS_9allocatorIS1_EEE4sizeB7v160006Ev, symObjAddr: 0xCEE8, symBinAddr: 0x1000117EC, symSize: 0xB4 }
  - { offsetInCU: 0x10536, offset: 0x1A260, size: 0x8, addend: 0x0, symName: __ZNKSt3__15dequeIiNS_9allocatorIiEEE13__front_spareB7v160006Ev, symObjAddr: 0xCF9C, symBinAddr: 0x1000118A0, symSize: 0x64 }
  - { offsetInCU: 0x1055A, offset: 0x1A284, size: 0x8, addend: 0x0, symName: __ZNSt3__114__split_bufferIPiNS_9allocatorIS1_EEE5frontB7v160006Ev, symObjAddr: 0xD000, symBinAddr: 0x100011904, symSize: 0x64 }
  - { offsetInCU: 0x1057E, offset: 0x1A2A8, size: 0x8, addend: 0x0, symName: __ZNSt3__114__split_bufferIPiNS_9allocatorIS1_EEE9pop_frontB7v160006Ev, symObjAddr: 0xD064, symBinAddr: 0x100011968, symSize: 0x6C }
  - { offsetInCU: 0x105A2, offset: 0x1A2CC, size: 0x8, addend: 0x0, symName: __ZNSt3__114__split_bufferIPiNS_9allocatorIS1_EEE9push_backB7v160006ERKS1_, symObjAddr: 0xD0D0, symBinAddr: 0x1000119D4, symSize: 0xA60 }
  - { offsetInCU: 0x10620, offset: 0x1A34A, size: 0x8, addend: 0x0, symName: __ZNKSt3__114__split_bufferIPiNS_9allocatorIS1_EEE12__back_spareB7v160006Ev, symObjAddr: 0xDB30, symBinAddr: 0x100012434, symSize: 0xC0 }
  - { offsetInCU: 0x10644, offset: 0x1A36E, size: 0x8, addend: 0x0, symName: __ZNSt3__114__split_bufferIPiNS_9allocatorIS1_EEE9push_backEOS1_, symObjAddr: 0xDBF0, symBinAddr: 0x1000124F4, symSize: 0xA60 }
  - { offsetInCU: 0x106C2, offset: 0x1A3EC, size: 0x8, addend: 0x0, symName: __ZNSt3__116allocator_traitsINS_9allocatorIiEEE8allocateB7v160006ERS2_m, symObjAddr: 0xE650, symBinAddr: 0x100012F54, symSize: 0x2C }
  - { offsetInCU: 0x106F4, offset: 0x1A41E, size: 0x8, addend: 0x0, symName: __ZNSt3__114__split_bufferIPiNS_9allocatorIS1_EEE10push_frontEOS1_, symObjAddr: 0xE67C, symBinAddr: 0x100012F80, symSize: 0xA64 }
  - { offsetInCU: 0x10772, offset: 0x1A49C, size: 0x8, addend: 0x0, symName: __ZNSt3__114__split_bufferIPiRNS_9allocatorIS1_EEEC1EmmS4_, symObjAddr: 0xF10C, symBinAddr: 0x100013A10, symSize: 0x44 }
  - { offsetInCU: 0x107CC, offset: 0x1A4F6, size: 0x8, addend: 0x0, symName: __ZNSt3__122__allocator_destructorINS_9allocatorIiEEEC1B7v160006ERS2_m, symObjAddr: 0xF150, symBinAddr: 0x100013A54, symSize: 0x3C }
  - { offsetInCU: 0x1087E, offset: 0x1A5A8, size: 0x8, addend: 0x0, symName: __ZNSt3__110unique_ptrIPiNS_22__allocator_destructorINS_9allocatorIiEEEEEC1B7v160006ILb1EvEES1_NS_16__dependent_typeINS_27__unique_ptr_deleter_sfinaeIS5_EEXT_EE20__good_rval_ref_typeE, symObjAddr: 0xF18C, symBinAddr: 0x100013A90, symSize: 0x3C }
  - { offsetInCU: 0x108CE, offset: 0x1A5F8, size: 0x8, addend: 0x0, symName: __ZNSt3__114__split_bufferIPiRNS_9allocatorIS1_EEE9push_backEOS1_, symObjAddr: 0xF1C8, symBinAddr: 0x100013ACC, symSize: 0xA60 }
  - { offsetInCU: 0x1094C, offset: 0x1A676, size: 0x8, addend: 0x0, symName: __ZNKSt3__110unique_ptrIPiNS_22__allocator_destructorINS_9allocatorIiEEEEE3getB7v160006Ev, symObjAddr: 0xFC28, symBinAddr: 0x10001452C, symSize: 0x6C }
  - { offsetInCU: 0x10970, offset: 0x1A69A, size: 0x8, addend: 0x0, symName: __ZNSt3__110unique_ptrIPiNS_22__allocator_destructorINS_9allocatorIiEEEEE7releaseB7v160006Ev, symObjAddr: 0xFC94, symBinAddr: 0x100014598, symSize: 0xB8 }
  - { offsetInCU: 0x109A3, offset: 0x1A6CD, size: 0x8, addend: 0x0, symName: __ZNSt3__114__split_bufferIPiRNS_9allocatorIS1_EEE10push_frontERKS1_, symObjAddr: 0xFD4C, symBinAddr: 0x100014650, symSize: 0xA64 }
  - { offsetInCU: 0x10A21, offset: 0x1A74B, size: 0x8, addend: 0x0, symName: __ZNSt3__114__split_bufferIPiNS_9allocatorIS1_EEE9__end_capB7v160006Ev, symObjAddr: 0x108E4, symBinAddr: 0x1000151E8, symSize: 0x28 }
  - { offsetInCU: 0x10A45, offset: 0x1A76F, size: 0x8, addend: 0x0, symName: __ZNSt3__114__split_bufferIPiRNS_9allocatorIS1_EEE9__end_capB7v160006Ev, symObjAddr: 0x1090C, symBinAddr: 0x100015210, symSize: 0x28 }
  - { offsetInCU: 0x10A69, offset: 0x1A793, size: 0x8, addend: 0x0, symName: __ZNSt3__110unique_ptrIPiNS_22__allocator_destructorINS_9allocatorIiEEEEED1B7v160006Ev, symObjAddr: 0x10934, symBinAddr: 0x100015238, symSize: 0x2C }
  - { offsetInCU: 0x10A91, offset: 0x1A7BB, size: 0x8, addend: 0x0, symName: __ZNSt3__114__split_bufferIPiRNS_9allocatorIS1_EEED1Ev, symObjAddr: 0x10960, symBinAddr: 0x100015264, symSize: 0x2C }
  - { offsetInCU: 0x10ABC, offset: 0x1A7E6, size: 0x8, addend: 0x0, symName: __ZNSt3__114__split_bufferIPiNS_9allocatorIS1_EEE19__destruct_at_beginB7v160006EPS1_, symObjAddr: 0x1098C, symBinAddr: 0x100015290, symSize: 0x2C }
  - { offsetInCU: 0x10AEE, offset: 0x1A818, size: 0x8, addend: 0x0, symName: __ZNSt3__114__split_bufferIPiNS_9allocatorIS1_EEE19__destruct_at_beginEPS1_NS_17integral_constantIbLb1EEE, symObjAddr: 0x109B8, symBinAddr: 0x1000152BC, symSize: 0x74 }
  - { offsetInCU: 0x10B2C, offset: 0x1A856, size: 0x8, addend: 0x0, symName: __ZNSt3__114__split_bufferIPiRNS_9allocatorIS1_EEE18__construct_at_endINS_13move_iteratorIPS1_EEEENS_9enable_ifIXsr27__is_cpp17_forward_iteratorIT_EE5valueEvE4typeESB_SB_, symObjAddr: 0x10C80, symBinAddr: 0x100015584, symSize: 0x614 }
  - { offsetInCU: 0x10B93, offset: 0x1A8BD, size: 0x8, addend: 0x0, symName: __ZNSt3__113move_iteratorIPPiEC1B7v160006ES2_, symObjAddr: 0x11294, symBinAddr: 0x100015B98, symSize: 0x34 }
  - { offsetInCU: 0x10BC9, offset: 0x1A8F3, size: 0x8, addend: 0x0, symName: __ZNSt3__116allocator_traitsINS_9allocatorIPiEEE9constructB7v160006IS2_JRKS2_EvEEvRS3_PT_DpOT0_, symObjAddr: 0x112C8, symBinAddr: 0x100015BCC, symSize: 0x34 }
  - { offsetInCU: 0x10C44, offset: 0x1A96E, size: 0x8, addend: 0x0, symName: __ZNKSt3__114__move_trivialclB7v160006IPiS2_Li0EEENS_4pairIPT_PT0_EES5_S5_S7_, symObjAddr: 0x12058, symBinAddr: 0x10001695C, symSize: 0x230 }
  - { offsetInCU: 0x10CAF, offset: 0x1A9D9, size: 0x8, addend: 0x0, symName: __ZNSt3__14pairIPPiS2_EC1B7v160006ERKS2_S5_, symObjAddr: 0x12B04, symBinAddr: 0x100017408, symSize: 0x3C }
  - { offsetInCU: 0x10CF3, offset: 0x1AA1D, size: 0x8, addend: 0x0, symName: __ZNSt3__14pairIPPiS2_EC2B7v160006ERKS2_S5_, symObjAddr: 0x12B40, symBinAddr: 0x100017444, symSize: 0x138 }
  - { offsetInCU: 0x10D37, offset: 0x1AA61, size: 0x8, addend: 0x0, symName: __ZNSt3__118__unwrap_iter_implIPPiLb1EE8__unwrapB7v160006ES2_, symObjAddr: 0x12C78, symBinAddr: 0x10001757C, symSize: 0x24 }
  - { offsetInCU: 0x10D59, offset: 0x1AA83, size: 0x8, addend: 0x0, symName: __ZNSt3__118__unwrap_iter_implIPPiLb1EE8__rewrapB7v160006ES2_S2_, symObjAddr: 0x12C9C, symBinAddr: 0x1000175A0, symSize: 0x50 }
  - { offsetInCU: 0x10D93, offset: 0x1AABD, size: 0x8, addend: 0x0, symName: __ZNSt3__114__split_bufferIPiRNS_9allocatorIS1_EEE21_ConstructTransactionC1B7v160006EPPS1_m, symObjAddr: 0x1303C, symBinAddr: 0x100017940, symSize: 0x3C }
  - { offsetInCU: 0x10DD7, offset: 0x1AB01, size: 0x8, addend: 0x0, symName: __ZNSt3__116allocator_traitsINS_9allocatorIPiEEE9constructB7v160006IS2_JS2_EvEEvRS3_PT_DpOT0_, symObjAddr: 0x13078, symBinAddr: 0x10001797C, symSize: 0x34 }
  - { offsetInCU: 0x10E2F, offset: 0x1AB59, size: 0x8, addend: 0x0, symName: __ZNSt3__114__split_bufferIPiRNS_9allocatorIS1_EEE7__allocB7v160006Ev, symObjAddr: 0x130AC, symBinAddr: 0x1000179B0, symSize: 0x28 }
  - { offsetInCU: 0x10E53, offset: 0x1AB7D, size: 0x8, addend: 0x0, symName: __ZNKSt3__113move_iteratorIPPiEdeB7v160006Ev, symObjAddr: 0x130D4, symBinAddr: 0x1000179D8, symSize: 0x60 }
  - { offsetInCU: 0x10E77, offset: 0x1ABA1, size: 0x8, addend: 0x0, symName: __ZNSt3__113move_iteratorIPPiEppB7v160006Ev, symObjAddr: 0x13134, symBinAddr: 0x100017A38, symSize: 0x68 }
  - { offsetInCU: 0x10E9B, offset: 0x1ABC5, size: 0x8, addend: 0x0, symName: __ZNSt3__114__split_bufferIPiRNS_9allocatorIS1_EEE21_ConstructTransactionD1B7v160006Ev, symObjAddr: 0x1319C, symBinAddr: 0x100017AA0, symSize: 0x2C }
  - { offsetInCU: 0x10EC3, offset: 0x1ABED, size: 0x8, addend: 0x0, symName: __ZNKSt3__113move_iteratorIPPiE4baseB7v160006Ev, symObjAddr: 0x13484, symBinAddr: 0x100017D88, symSize: 0x60 }
  - { offsetInCU: 0x10EE7, offset: 0x1AC11, size: 0x8, addend: 0x0, symName: __ZNSt3__114__split_bufferIPiRNS_9allocatorIS1_EEE21_ConstructTransactionC2B7v160006EPPS1_m, symObjAddr: 0x134E4, symBinAddr: 0x100017DE8, symSize: 0x184 }
  - { offsetInCU: 0x10F2B, offset: 0x1AC55, size: 0x8, addend: 0x0, symName: __ZNSt3__19allocatorIPiE9constructB7v160006IS1_JS1_EEEvPT_DpOT0_, symObjAddr: 0x13668, symBinAddr: 0x100017F6C, symSize: 0xB4 }
  - { offsetInCU: 0x10F80, offset: 0x1ACAA, size: 0x8, addend: 0x0, symName: __ZNSt3__117__compressed_pairIPPiRNS_9allocatorIS1_EEE6secondB7v160006Ev, symObjAddr: 0x1371C, symBinAddr: 0x100018020, symSize: 0x28 }
  - { offsetInCU: 0x10FA4, offset: 0x1ACCE, size: 0x8, addend: 0x0, symName: __ZNSt3__122__compressed_pair_elemIRNS_9allocatorIPiEELi1ELb0EE5__getB7v160006Ev, symObjAddr: 0x13744, symBinAddr: 0x100018048, symSize: 0x60 }
  - { offsetInCU: 0x10FC8, offset: 0x1ACF2, size: 0x8, addend: 0x0, symName: __ZNSt3__114__split_bufferIPiRNS_9allocatorIS1_EEE21_ConstructTransactionD2B7v160006Ev, symObjAddr: 0x137A4, symBinAddr: 0x1000180A8, symSize: 0xE0 }
  - { offsetInCU: 0x10FF0, offset: 0x1AD1A, size: 0x8, addend: 0x0, symName: __ZNSt3__113move_iteratorIPPiEC2B7v160006ES2_, symObjAddr: 0x13884, symBinAddr: 0x100018188, symSize: 0x70 }
  - { offsetInCU: 0x11026, offset: 0x1AD50, size: 0x8, addend: 0x0, symName: __ZNSt3__19allocatorIPiE9constructB7v160006IS1_JRKS1_EEEvPT_DpOT0_, symObjAddr: 0x138F4, symBinAddr: 0x1000181F8, symSize: 0xB4 }
  - { offsetInCU: 0x1107B, offset: 0x1ADA5, size: 0x8, addend: 0x0, symName: __ZNSt3__19allocatorIiE8allocateB7v160006Em, symObjAddr: 0x139A8, symBinAddr: 0x1000182AC, symSize: 0x88 }
  - { offsetInCU: 0x110B7, offset: 0x1ADE1, size: 0x8, addend: 0x0, symName: __ZNSt3__116allocator_traitsINS_9allocatorIiEEE8max_sizeB7v160006IS2_vEEmRKS2_, symObjAddr: 0x13A30, symBinAddr: 0x100018334, symSize: 0x24 }
  - { offsetInCU: 0x110E5, offset: 0x1AE0F, size: 0x8, addend: 0x0, symName: __ZNKSt3__19allocatorIiE8max_sizeB7v160006Ev, symObjAddr: 0x13AB4, symBinAddr: 0x1000183B8, symSize: 0x14 }
  - { offsetInCU: 0x11113, offset: 0x1AE3D, size: 0x8, addend: 0x0, symName: __ZNKSt3__123__move_backward_trivialclB7v160006IPiS2_Li0EEENS_4pairIPT_PT0_EES5_S5_S7_, symObjAddr: 0x1474C, symBinAddr: 0x100019050, symSize: 0x230 }
  - { offsetInCU: 0x11188, offset: 0x1AEB2, size: 0x8, addend: 0x0, symName: __ZNKSt3__16__lessImmEclB7v160006ERKmS3_, symObjAddr: 0x15150, symBinAddr: 0x100019A54, symSize: 0xBC }
  - { offsetInCU: 0x111C8, offset: 0x1AEF2, size: 0x8, addend: 0x0, symName: __ZNSt3__114__split_bufferIPiRNS_9allocatorIS1_EEEC2EmmS4_, symObjAddr: 0x1520C, symBinAddr: 0x100019B10, symSize: 0x520 }
  - { offsetInCU: 0x11243, offset: 0x1AF6D, size: 0x8, addend: 0x0, symName: __ZNSt3__117__compressed_pairIPPiRNS_9allocatorIS1_EEEC1B7v160006IDnS5_EEOT_OT0_, symObjAddr: 0x1572C, symBinAddr: 0x10001A030, symSize: 0x3C }
  - { offsetInCU: 0x11299, offset: 0x1AFC3, size: 0x8, addend: 0x0, symName: __ZNSt3__117__compressed_pairIPPiRNS_9allocatorIS1_EEEC2B7v160006IDnS5_EEOT_OT0_, symObjAddr: 0x159F4, symBinAddr: 0x10001A2F8, symSize: 0x48 }
  - { offsetInCU: 0x112EF, offset: 0x1B019, size: 0x8, addend: 0x0, symName: __ZNSt3__122__compressed_pair_elemIRNS_9allocatorIPiEELi1ELb0EEC2B7v160006IS4_vEEOT_, symObjAddr: 0x15A3C, symBinAddr: 0x10001A340, symSize: 0x70 }
  - { offsetInCU: 0x11330, offset: 0x1B05A, size: 0x8, addend: 0x0, symName: __ZNSt3__19allocatorIPiE8allocateB7v160006Em, symObjAddr: 0x15AAC, symBinAddr: 0x10001A3B0, symSize: 0x88 }
  - { offsetInCU: 0x1136C, offset: 0x1B096, size: 0x8, addend: 0x0, symName: __ZNSt3__116allocator_traitsINS_9allocatorIPiEEE8max_sizeB7v160006IS3_vEEmRKS3_, symObjAddr: 0x15B34, symBinAddr: 0x10001A438, symSize: 0x24 }
  - { offsetInCU: 0x1139A, offset: 0x1B0C4, size: 0x8, addend: 0x0, symName: __ZNKSt3__19allocatorIPiE8max_sizeB7v160006Ev, symObjAddr: 0x15B58, symBinAddr: 0x10001A45C, symSize: 0x14 }
  - { offsetInCU: 0x113BE, offset: 0x1B0E8, size: 0x8, addend: 0x0, symName: __ZNSt3__122__allocator_destructorINS_9allocatorIiEEEC2B7v160006ERS2_m, symObjAddr: 0x15B6C, symBinAddr: 0x10001A470, symSize: 0xBC }
  - { offsetInCU: 0x11402, offset: 0x1B12C, size: 0x8, addend: 0x0, symName: __ZNSt3__110unique_ptrIPiNS_22__allocator_destructorINS_9allocatorIiEEEEEC2B7v160006ILb1EvEES1_NS_16__dependent_typeINS_27__unique_ptr_deleter_sfinaeIS5_EEXT_EE20__good_rval_ref_typeE, symObjAddr: 0x15C28, symBinAddr: 0x10001A52C, symSize: 0x230 }
  - { offsetInCU: 0x11458, offset: 0x1B182, size: 0x8, addend: 0x0, symName: __ZNSt3__117__compressed_pairIPiNS_22__allocator_destructorINS_9allocatorIiEEEEEC1B7v160006IRS1_S5_EEOT_OT0_, symObjAddr: 0x15E58, symBinAddr: 0x10001A75C, symSize: 0x3C }
  - { offsetInCU: 0x114AE, offset: 0x1B1D8, size: 0x8, addend: 0x0, symName: __ZNSt3__117__compressed_pairIPiNS_22__allocator_destructorINS_9allocatorIiEEEEEC2B7v160006IRS1_S5_EEOT_OT0_, symObjAddr: 0x15E94, symBinAddr: 0x10001A798, symSize: 0x48 }
  - { offsetInCU: 0x11504, offset: 0x1B22E, size: 0x8, addend: 0x0, symName: __ZNSt3__122__compressed_pair_elemIPiLi0ELb0EEC2B7v160006IRS1_vEEOT_, symObjAddr: 0x15EDC, symBinAddr: 0x10001A7E0, symSize: 0xB0 }
  - { offsetInCU: 0x11545, offset: 0x1B26F, size: 0x8, addend: 0x0, symName: __ZNSt3__122__compressed_pair_elemINS_22__allocator_destructorINS_9allocatorIiEEEELi1ELb0EEC2B7v160006IS4_vEEOT_, symObjAddr: 0x15F8C, symBinAddr: 0x10001A890, symSize: 0x38 }
  - { offsetInCU: 0x11586, offset: 0x1B2B0, size: 0x8, addend: 0x0, symName: __ZNKSt3__117__compressed_pairIPiNS_22__allocator_destructorINS_9allocatorIiEEEEE5firstB7v160006Ev, symObjAddr: 0x15FC4, symBinAddr: 0x10001A8C8, symSize: 0x24 }
  - { offsetInCU: 0x115AA, offset: 0x1B2D4, size: 0x8, addend: 0x0, symName: __ZNSt3__117__compressed_pairIPiNS_22__allocator_destructorINS_9allocatorIiEEEEE5firstB7v160006Ev, symObjAddr: 0x15FE8, symBinAddr: 0x10001A8EC, symSize: 0x24 }
  - { offsetInCU: 0x115CE, offset: 0x1B2F8, size: 0x8, addend: 0x0, symName: __ZNSt3__122__compressed_pair_elemIPiLi0ELb0EE5__getB7v160006Ev, symObjAddr: 0x1600C, symBinAddr: 0x10001A910, symSize: 0x14 }
  - { offsetInCU: 0x115F2, offset: 0x1B31C, size: 0x8, addend: 0x0, symName: __ZNSt3__117__compressed_pairIPPiNS_9allocatorIS1_EEE5firstB7v160006Ev, symObjAddr: 0x16020, symBinAddr: 0x10001A924, symSize: 0x24 }
  - { offsetInCU: 0x11616, offset: 0x1B340, size: 0x8, addend: 0x0, symName: __ZNSt3__122__compressed_pair_elemIPPiLi0ELb0EE5__getB7v160006Ev, symObjAddr: 0x16044, symBinAddr: 0x10001A948, symSize: 0x14 }
  - { offsetInCU: 0x1163A, offset: 0x1B364, size: 0x8, addend: 0x0, symName: __ZNSt3__117__compressed_pairIPPiRNS_9allocatorIS1_EEE5firstB7v160006Ev, symObjAddr: 0x16058, symBinAddr: 0x10001A95C, symSize: 0x24 }
  - { offsetInCU: 0x1165E, offset: 0x1B388, size: 0x8, addend: 0x0, symName: __ZNSt3__110unique_ptrIPiNS_22__allocator_destructorINS_9allocatorIiEEEEED2B7v160006Ev, symObjAddr: 0x1607C, symBinAddr: 0x10001A980, symSize: 0x30 }
  - { offsetInCU: 0x11686, offset: 0x1B3B0, size: 0x8, addend: 0x0, symName: __ZNSt3__110unique_ptrIPiNS_22__allocator_destructorINS_9allocatorIiEEEEE5resetB7v160006ES1_, symObjAddr: 0x160AC, symBinAddr: 0x10001A9B0, symSize: 0xEC }
  - { offsetInCU: 0x116C8, offset: 0x1B3F2, size: 0x8, addend: 0x0, symName: __ZNSt3__117__compressed_pairIPiNS_22__allocator_destructorINS_9allocatorIiEEEEE6secondB7v160006Ev, symObjAddr: 0x16198, symBinAddr: 0x10001AA9C, symSize: 0x28 }
  - { offsetInCU: 0x116EC, offset: 0x1B416, size: 0x8, addend: 0x0, symName: __ZNSt3__122__allocator_destructorINS_9allocatorIiEEEclB7v160006EPi, symObjAddr: 0x161C0, symBinAddr: 0x10001AAC4, symSize: 0xB8 }
  - { offsetInCU: 0x1171E, offset: 0x1B448, size: 0x8, addend: 0x0, symName: __ZNSt3__122__compressed_pair_elemINS_22__allocator_destructorINS_9allocatorIiEEEELi1ELb0EE5__getB7v160006Ev, symObjAddr: 0x16278, symBinAddr: 0x10001AB7C, symSize: 0x14 }
  - { offsetInCU: 0x11742, offset: 0x1B46C, size: 0x8, addend: 0x0, symName: __ZNSt3__114__split_bufferIPiRNS_9allocatorIS1_EEED2Ev, symObjAddr: 0x1628C, symBinAddr: 0x10001AB90, symSize: 0xEC }
  - { offsetInCU: 0x1176D, offset: 0x1B497, size: 0x8, addend: 0x0, symName: __ZNSt3__114__split_bufferIPiRNS_9allocatorIS1_EEE5clearB7v160006Ev, symObjAddr: 0x16378, symBinAddr: 0x10001AC7C, symSize: 0x68 }
  - { offsetInCU: 0x11791, offset: 0x1B4BB, size: 0x8, addend: 0x0, symName: __ZNKSt3__114__split_bufferIPiRNS_9allocatorIS1_EEE8capacityB7v160006Ev, symObjAddr: 0x163E0, symBinAddr: 0x10001ACE4, symSize: 0xBC }
  - { offsetInCU: 0x117B5, offset: 0x1B4DF, size: 0x8, addend: 0x0, symName: __ZNSt3__114__split_bufferIPiRNS_9allocatorIS1_EEE17__destruct_at_endB7v160006EPS1_, symObjAddr: 0x1649C, symBinAddr: 0x10001ADA0, symSize: 0x2C }
  - { offsetInCU: 0x117E7, offset: 0x1B511, size: 0x8, addend: 0x0, symName: __ZNSt3__114__split_bufferIPiRNS_9allocatorIS1_EEE17__destruct_at_endB7v160006EPS1_NS_17integral_constantIbLb0EEE, symObjAddr: 0x164C8, symBinAddr: 0x10001ADCC, symSize: 0x120 }
  - { offsetInCU: 0x11825, offset: 0x1B54F, size: 0x8, addend: 0x0, symName: __ZNKSt3__114__split_bufferIPiRNS_9allocatorIS1_EEE9__end_capB7v160006Ev, symObjAddr: 0x165E8, symBinAddr: 0x10001AEEC, symSize: 0x28 }
  - { offsetInCU: 0x11849, offset: 0x1B573, size: 0x8, addend: 0x0, symName: __ZNKSt3__117__compressed_pairIPPiRNS_9allocatorIS1_EEE5firstB7v160006Ev, symObjAddr: 0x16610, symBinAddr: 0x10001AF14, symSize: 0x24 }
  - { offsetInCU: 0x1186D, offset: 0x1B597, size: 0x8, addend: 0x0, symName: __ZNSt3__19allocatorIiE9constructB7v160006IiJRKiEEEvPT_DpOT0_, symObjAddr: 0x16634, symBinAddr: 0x10001AF38, symSize: 0x104 }
  - { offsetInCU: 0x118C2, offset: 0x1B5EC, size: 0x8, addend: 0x0, symName: __ZNSt3__117__compressed_pairImNS_9allocatorIiEEE5firstB7v160006Ev, symObjAddr: 0x16738, symBinAddr: 0x10001B03C, symSize: 0x24 }
  - { offsetInCU: 0x118E6, offset: 0x1B610, size: 0x8, addend: 0x0, symName: __ZNSt3__122__compressed_pair_elemImLi0ELb0EE5__getB7v160006Ev, symObjAddr: 0x1675C, symBinAddr: 0x10001B060, symSize: 0x14 }
  - { offsetInCU: 0x1190A, offset: 0x1B634, size: 0x8, addend: 0x0, symName: __ZNSt3__16vectorIiNS_9allocatorIiEEE9__end_capB7v160006Ev, symObjAddr: 0x16770, symBinAddr: 0x10001B074, symSize: 0x28 }
  - { offsetInCU: 0x1192E, offset: 0x1B658, size: 0x8, addend: 0x0, symName: __ZNSt3__16vectorIiNS_9allocatorIiEEE22__construct_one_at_endB7v160006IJiEEEvDpOT_, symObjAddr: 0x16798, symBinAddr: 0x10001B09C, symSize: 0x380 }
  - { offsetInCU: 0x11982, offset: 0x1B6AC, size: 0x8, addend: 0x0, symName: __ZNSt3__16vectorIiNS_9allocatorIiEEE21__push_back_slow_pathIiEEvOT_, symObjAddr: 0x16B18, symBinAddr: 0x10001B41C, symSize: 0x3D4 }
  - { offsetInCU: 0x119E5, offset: 0x1B70F, size: 0x8, addend: 0x0, symName: __ZNSt3__117__compressed_pairIPiNS_9allocatorIiEEE5firstB7v160006Ev, symObjAddr: 0x16EEC, symBinAddr: 0x10001B7F0, symSize: 0x24 }
  - { offsetInCU: 0x11A22, offset: 0x1B74C, size: 0x8, addend: 0x0, symName: __ZNSt3__16vectorIiNS_9allocatorIiEEE21_ConstructTransactionC1B7v160006ERS3_m, symObjAddr: 0x16F10, symBinAddr: 0x10001B814, symSize: 0x3C }
  - { offsetInCU: 0x11A68, offset: 0x1B792, size: 0x8, addend: 0x0, symName: __ZNSt3__116allocator_traitsINS_9allocatorIiEEE9constructB7v160006IiJiEvEEvRS2_PT_DpOT0_, symObjAddr: 0x16F4C, symBinAddr: 0x10001B850, symSize: 0x34 }
  - { offsetInCU: 0x11AC0, offset: 0x1B7EA, size: 0x8, addend: 0x0, symName: __ZNSt3__16vectorIiNS_9allocatorIiEEE21_ConstructTransactionD1B7v160006Ev, symObjAddr: 0x16F80, symBinAddr: 0x10001B884, symSize: 0x2C }
  - { offsetInCU: 0x11AE8, offset: 0x1B812, size: 0x8, addend: 0x0, symName: __ZNSt3__16vectorIiNS_9allocatorIiEEE21_ConstructTransactionC2B7v160006ERS3_m, symObjAddr: 0x16FAC, symBinAddr: 0x10001B8B0, symSize: 0x1D0 }
  - { offsetInCU: 0x11B2E, offset: 0x1B858, size: 0x8, addend: 0x0, symName: __ZNKSt3__16vectorIiNS_9allocatorIiEEE19__annotate_increaseB7v160006Em, symObjAddr: 0x1717C, symBinAddr: 0x10001BA80, symSize: 0xEC }
  - { offsetInCU: 0x11B61, offset: 0x1B88B, size: 0x8, addend: 0x0, symName: __ZNSt3__19allocatorIiE9constructB7v160006IiJiEEEvPT_DpOT0_, symObjAddr: 0x17268, symBinAddr: 0x10001BB6C, symSize: 0x104 }
  - { offsetInCU: 0x11BB6, offset: 0x1B8E0, size: 0x8, addend: 0x0, symName: __ZNSt3__16vectorIiNS_9allocatorIiEEE21_ConstructTransactionD2B7v160006Ev, symObjAddr: 0x1736C, symBinAddr: 0x10001BC70, symSize: 0x278 }
  - { offsetInCU: 0x11BDE, offset: 0x1B908, size: 0x8, addend: 0x0, symName: __ZNKSt3__16vectorIiNS_9allocatorIiEEE17__annotate_shrinkB7v160006Em, symObjAddr: 0x175E4, symBinAddr: 0x10001BEE8, symSize: 0xDC }
  - { offsetInCU: 0x11C11, offset: 0x1B93B, size: 0x8, addend: 0x0, symName: __ZNKSt3__16vectorIiNS_9allocatorIiEEE11__recommendB7v160006Em, symObjAddr: 0x176C0, symBinAddr: 0x10001BFC4, symSize: 0x384 }
  - { offsetInCU: 0x11C6B, offset: 0x1B995, size: 0x8, addend: 0x0, symName: __ZNSt3__114__split_bufferIiRNS_9allocatorIiEEEC1EmmS3_, symObjAddr: 0x17A44, symBinAddr: 0x10001C348, symSize: 0x44 }
  - { offsetInCU: 0x11CC0, offset: 0x1B9EA, size: 0x8, addend: 0x0, symName: __ZNSt3__114__split_bufferIiRNS_9allocatorIiEEED1Ev, symObjAddr: 0x17FFC, symBinAddr: 0x10001C900, symSize: 0x2C }
  - { offsetInCU: 0x11CEB, offset: 0x1BA15, size: 0x8, addend: 0x0, symName: __ZNKSt3__16vectorIiNS_9allocatorIiEEE8max_sizeEv, symObjAddr: 0x18028, symBinAddr: 0x10001C92C, symSize: 0x328 }
  - { offsetInCU: 0x11D12, offset: 0x1BA3C, size: 0x8, addend: 0x0, symName: __ZNKSt3__16vectorIiNS_9allocatorIiEEE20__throw_length_errorB7v160006Ev, symObjAddr: 0x18350, symBinAddr: 0x10001CC54, symSize: 0x20 }
  - { offsetInCU: 0x11D36, offset: 0x1BA60, size: 0x8, addend: 0x0, symName: __ZNKSt3__16vectorIiNS_9allocatorIiEEE7__allocB7v160006Ev, symObjAddr: 0x1839C, symBinAddr: 0x10001CCA0, symSize: 0x28 }
  - { offsetInCU: 0x11D5A, offset: 0x1BA84, size: 0x8, addend: 0x0, symName: __ZNSt3__114numeric_limitsIlE3maxB7v160006Ev, symObjAddr: 0x183C4, symBinAddr: 0x10001CCC8, symSize: 0x14 }
  - { offsetInCU: 0x11D6E, offset: 0x1BA98, size: 0x8, addend: 0x0, symName: __ZNKSt3__117__compressed_pairIPiNS_9allocatorIiEEE6secondB7v160006Ev, symObjAddr: 0x185C0, symBinAddr: 0x10001CEC4, symSize: 0x24 }
  - { offsetInCU: 0x11D92, offset: 0x1BABC, size: 0x8, addend: 0x0, symName: __ZNKSt3__122__compressed_pair_elemINS_9allocatorIiEELi1ELb1EE5__getB7v160006Ev, symObjAddr: 0x185E4, symBinAddr: 0x10001CEE8, symSize: 0x14 }
  - { offsetInCU: 0x11DB6, offset: 0x1BAE0, size: 0x8, addend: 0x0, symName: __ZNSt3__123__libcpp_numeric_limitsIlLb1EE3maxB7v160006Ev, symObjAddr: 0x185F8, symBinAddr: 0x10001CEFC, symSize: 0x8 }
  - { offsetInCU: 0x11DC9, offset: 0x1BAF3, size: 0x8, addend: 0x0, symName: __ZNSt12length_errorC1B7v160006EPKc, symObjAddr: 0x18668, symBinAddr: 0x10001CF6C, symSize: 0x34 }
  - { offsetInCU: 0x11DFF, offset: 0x1BB29, size: 0x8, addend: 0x0, symName: __ZNSt12length_errorC2B7v160006EPKc, symObjAddr: 0x1869C, symBinAddr: 0x10001CFA0, symSize: 0x8C }
  - { offsetInCU: 0x11E35, offset: 0x1BB5F, size: 0x8, addend: 0x0, symName: __ZNSt3__114__split_bufferIiRNS_9allocatorIiEEEC2EmmS3_, symObjAddr: 0x18728, symBinAddr: 0x10001D02C, symSize: 0x520 }
  - { offsetInCU: 0x11EB0, offset: 0x1BBDA, size: 0x8, addend: 0x0, symName: __ZNSt3__117__compressed_pairIPiRNS_9allocatorIiEEEC1B7v160006IDnS4_EEOT_OT0_, symObjAddr: 0x18C48, symBinAddr: 0x10001D54C, symSize: 0x3C }
  - { offsetInCU: 0x11F06, offset: 0x1BC30, size: 0x8, addend: 0x0, symName: __ZNSt3__114__split_bufferIiRNS_9allocatorIiEEE7__allocB7v160006Ev, symObjAddr: 0x18F10, symBinAddr: 0x10001D814, symSize: 0x28 }
  - { offsetInCU: 0x11F2A, offset: 0x1BC54, size: 0x8, addend: 0x0, symName: __ZNSt3__114__split_bufferIiRNS_9allocatorIiEEE9__end_capB7v160006Ev, symObjAddr: 0x18F38, symBinAddr: 0x10001D83C, symSize: 0x28 }
  - { offsetInCU: 0x11F4E, offset: 0x1BC78, size: 0x8, addend: 0x0, symName: __ZNSt3__117__compressed_pairIPiRNS_9allocatorIiEEEC2B7v160006IDnS4_EEOT_OT0_, symObjAddr: 0x18F60, symBinAddr: 0x10001D864, symSize: 0x48 }
  - { offsetInCU: 0x11FA4, offset: 0x1BCCE, size: 0x8, addend: 0x0, symName: __ZNSt3__122__compressed_pair_elemIRNS_9allocatorIiEELi1ELb0EEC2B7v160006IS3_vEEOT_, symObjAddr: 0x18FA8, symBinAddr: 0x10001D8AC, symSize: 0x70 }
  - { offsetInCU: 0x11FE5, offset: 0x1BD0F, size: 0x8, addend: 0x0, symName: __ZNSt3__117__compressed_pairIPiRNS_9allocatorIiEEE6secondB7v160006Ev, symObjAddr: 0x19018, symBinAddr: 0x10001D91C, symSize: 0x28 }
  - { offsetInCU: 0x12009, offset: 0x1BD33, size: 0x8, addend: 0x0, symName: __ZNSt3__122__compressed_pair_elemIRNS_9allocatorIiEELi1ELb0EE5__getB7v160006Ev, symObjAddr: 0x19040, symBinAddr: 0x10001D944, symSize: 0x60 }
  - { offsetInCU: 0x1202D, offset: 0x1BD57, size: 0x8, addend: 0x0, symName: __ZNSt3__117__compressed_pairIPiRNS_9allocatorIiEEE5firstB7v160006Ev, symObjAddr: 0x190A0, symBinAddr: 0x10001D9A4, symSize: 0x24 }
  - { offsetInCU: 0x12051, offset: 0x1BD7B, size: 0x8, addend: 0x0, symName: __ZNSt3__116reverse_iteratorIPiEC1B7v160006ES1_, symObjAddr: 0x19614, symBinAddr: 0x10001DF18, symSize: 0x34 }
  - { offsetInCU: 0x12087, offset: 0x1BDB1, size: 0x8, addend: 0x0, symName: __ZNKSt3__116reverse_iteratorIPiE4baseB7v160006Ev, symObjAddr: 0x19648, symBinAddr: 0x10001DF4C, symSize: 0x64 }
  - { offsetInCU: 0x120AB, offset: 0x1BDD5, size: 0x8, addend: 0x0, symName: __ZNKSt3__16vectorIiNS_9allocatorIiEEE14__annotate_newB7v160006Em, symObjAddr: 0x197E0, symBinAddr: 0x10001E0E4, symSize: 0xD4 }
  - { offsetInCU: 0x120DE, offset: 0x1BE08, size: 0x8, addend: 0x0, symName: __ZNKSt3__116reverse_iteratorIPiEdeB7v160006Ev, symObjAddr: 0x19A38, symBinAddr: 0x10001E33C, symSize: 0x74 }
  - { offsetInCU: 0x12110, offset: 0x1BE3A, size: 0x8, addend: 0x0, symName: __ZNSt3__116reverse_iteratorIPiEppB7v160006Ev, symObjAddr: 0x19AAC, symBinAddr: 0x10001E3B0, symSize: 0x6C }
  - { offsetInCU: 0x12139, offset: 0x1BE63, size: 0x8, addend: 0x0, symName: __ZNSt3__119__to_address_helperINS_16reverse_iteratorIPiEEvE6__callB7v160006ERKS3_, symObjAddr: 0x19FC8, symBinAddr: 0x10001E8CC, symSize: 0x58 }
  - { offsetInCU: 0x1215B, offset: 0x1BE85, size: 0x8, addend: 0x0, symName: __ZNKSt3__116reverse_iteratorIPiEptB7v160006Ev, symObjAddr: 0x1A020, symBinAddr: 0x10001E924, symSize: 0x24 }
  - { offsetInCU: 0x121A2, offset: 0x1BECC, size: 0x8, addend: 0x0, symName: __ZNKSt3__111__move_loopINS_17_ClassicAlgPolicyEEclB7v160006INS_16reverse_iteratorIPiEES6_S6_EENS_4pairIT_T1_EES8_T0_S9_, symObjAddr: 0x1B564, symBinAddr: 0x10001FE68, symSize: 0x3F8 }
  - { offsetInCU: 0x12218, offset: 0x1BF42, size: 0x8, addend: 0x0, symName: __ZNSt3__18_IterOpsINS_17_ClassicAlgPolicyEE11__iter_moveB7v160006IRNS_16reverse_iteratorIPiEEEENS_9enable_ifIXsr12is_referenceIDTdeclsr3stdE7declvalIRT_EEEEE5valueEDTclsr3stdE4movedeclsr3stdE7declvalISA_EEEEE4typeEOS9_, symObjAddr: 0x1C450, symBinAddr: 0x100020D54, symSize: 0x28 }
  - { offsetInCU: 0x12243, offset: 0x1BF6D, size: 0x8, addend: 0x0, symName: __ZNSt3__18_IterOpsINS_17_ClassicAlgPolicyEE25__validate_iter_referenceB7v160006IRNS_16reverse_iteratorIPiEEEEvv, symObjAddr: 0x1C478, symBinAddr: 0x100020D7C, symSize: 0x4 }
  - { offsetInCU: 0x12260, offset: 0x1BF8A, size: 0x8, addend: 0x0, symName: __ZNSt3__118__unwrap_iter_implINS_16reverse_iteratorIPiEELb0EE8__unwrapB7v160006ES3_, symObjAddr: 0x1C47C, symBinAddr: 0x100020D80, symSize: 0x274 }
  - { offsetInCU: 0x12286, offset: 0x1BFB0, size: 0x8, addend: 0x0, symName: __ZNSt3__14pairINS_16reverse_iteratorIPiEES3_EC1B7v160006ERKS3_S6_, symObjAddr: 0x1C6F0, symBinAddr: 0x100020FF4, symSize: 0x3C }
  - { offsetInCU: 0x122CA, offset: 0x1BFF4, size: 0x8, addend: 0x0, symName: __ZNSt3__14pairINS_16reverse_iteratorIPiEES3_EC2B7v160006ERKS3_S6_, symObjAddr: 0x1C72C, symBinAddr: 0x100021030, symSize: 0x54 }
  - { offsetInCU: 0x1230E, offset: 0x1C038, size: 0x8, addend: 0x0, symName: __ZNSt3__118__unwrap_iter_implINS_16reverse_iteratorIPiEELb0EE8__rewrapB7v160006ES3_S3_, symObjAddr: 0x1C780, symBinAddr: 0x100021084, symSize: 0x2E0 }
  - { offsetInCU: 0x12342, offset: 0x1C06C, size: 0x8, addend: 0x0, symName: __ZNSt3__116reverse_iteratorIPiEC2B7v160006ES1_, symObjAddr: 0x1CA60, symBinAddr: 0x100021364, symSize: 0xB8 }
  - { offsetInCU: 0x12378, offset: 0x1C0A2, size: 0x8, addend: 0x0, symName: __ZNSt3__114__split_bufferIiRNS_9allocatorIiEEED2Ev, symObjAddr: 0x1CB18, symBinAddr: 0x10002141C, symSize: 0xEC }
  - { offsetInCU: 0x123A3, offset: 0x1C0CD, size: 0x8, addend: 0x0, symName: __ZNSt3__114__split_bufferIiRNS_9allocatorIiEEE5clearB7v160006Ev, symObjAddr: 0x1CC04, symBinAddr: 0x100021508, symSize: 0x68 }
  - { offsetInCU: 0x123C7, offset: 0x1C0F1, size: 0x8, addend: 0x0, symName: __ZNKSt3__114__split_bufferIiRNS_9allocatorIiEEE8capacityB7v160006Ev, symObjAddr: 0x1CC6C, symBinAddr: 0x100021570, symSize: 0xBC }
  - { offsetInCU: 0x123EB, offset: 0x1C115, size: 0x8, addend: 0x0, symName: __ZNSt3__114__split_bufferIiRNS_9allocatorIiEEE17__destruct_at_endB7v160006EPi, symObjAddr: 0x1CD28, symBinAddr: 0x10002162C, symSize: 0x2C }
  - { offsetInCU: 0x1241D, offset: 0x1C147, size: 0x8, addend: 0x0, symName: __ZNSt3__114__split_bufferIiRNS_9allocatorIiEEE17__destruct_at_endB7v160006EPiNS_17integral_constantIbLb0EEE, symObjAddr: 0x1CD54, symBinAddr: 0x100021658, symSize: 0x120 }
  - { offsetInCU: 0x1245B, offset: 0x1C185, size: 0x8, addend: 0x0, symName: __ZNKSt3__114__split_bufferIiRNS_9allocatorIiEEE9__end_capB7v160006Ev, symObjAddr: 0x1CE74, symBinAddr: 0x100021778, symSize: 0x28 }
  - { offsetInCU: 0x1247F, offset: 0x1C1A9, size: 0x8, addend: 0x0, symName: __ZNKSt3__117__compressed_pairIPiRNS_9allocatorIiEEE5firstB7v160006Ev, symObjAddr: 0x1CE9C, symBinAddr: 0x1000217A0, symSize: 0x24 }
  - { offsetInCU: 0x124A3, offset: 0x1C1CD, size: 0x8, addend: 0x0, symName: __ZNSt3__15dequeIiNS_9allocatorIiEEE20__add_front_capacityEv, symObjAddr: 0x1CEC0, symBinAddr: 0x1000217C4, symSize: 0xB5C }
  - { offsetInCU: 0x12563, offset: 0x1C28D, size: 0x8, addend: 0x0, symName: __ZNSt3__116__deque_iteratorIiPiRiPS1_lLl1024EEmmB7v160006Ev, symObjAddr: 0x1DA1C, symBinAddr: 0x100022320, symSize: 0x228 }
  - { offsetInCU: 0x12587, offset: 0x1C2B1, size: 0x8, addend: 0x0, symName: __ZNSt3__114__split_bufferIPiNS_9allocatorIS1_EEE4backB7v160006Ev, symObjAddr: 0x1DC44, symBinAddr: 0x100022548, symSize: 0x68 }
  - { offsetInCU: 0x125AB, offset: 0x1C2D5, size: 0x8, addend: 0x0, symName: __ZNSt3__114__split_bufferIPiNS_9allocatorIS1_EEE8pop_backB7v160006Ev, symObjAddr: 0x1DCAC, symBinAddr: 0x1000225B0, symSize: 0x6C }
  - { offsetInCU: 0x125CF, offset: 0x1C2F9, size: 0x8, addend: 0x0, symName: __ZNSt3__114__split_bufferIPiNS_9allocatorIS1_EEE10push_frontERKS1_, symObjAddr: 0x1DD18, symBinAddr: 0x10002261C, symSize: 0xA54 }
  - { offsetInCU: 0x1264D, offset: 0x1C377, size: 0x8, addend: 0x0, symName: __ZNKSt3__114__split_bufferIPiNS_9allocatorIS1_EEE13__front_spareB7v160006Ev, symObjAddr: 0x1E76C, symBinAddr: 0x100023070, symSize: 0xB0 }
  - { offsetInCU: 0x12671, offset: 0x1C39B, size: 0x8, addend: 0x0, symName: __ZNSt3__114__split_bufferIPiRNS_9allocatorIS1_EEE9push_backB7v160006ERKS1_, symObjAddr: 0x1E81C, symBinAddr: 0x100023120, symSize: 0xA50 }
  - { offsetInCU: 0x126EF, offset: 0x1C419, size: 0x8, addend: 0x0, symName: __ZNSt3__16vectorIiNS_9allocatorIiEEE11__make_iterB7v160006EPi, symObjAddr: 0x1F26C, symBinAddr: 0x100023B70, symSize: 0x200 }
  - { offsetInCU: 0x12724, offset: 0x1C44E, size: 0x8, addend: 0x0, symName: __ZNSt3__111__wrap_iterIPiEC1B7v160006EPKvS1_, symObjAddr: 0x1F46C, symBinAddr: 0x100023D70, symSize: 0x3C }
  - { offsetInCU: 0x12768, offset: 0x1C492, size: 0x8, addend: 0x0, symName: __ZNSt3__111__wrap_iterIPiEC2B7v160006EPKvS1_, symObjAddr: 0x1F4A8, symBinAddr: 0x100023DAC, symSize: 0x74 }
  - { offsetInCU: 0x127AC, offset: 0x1C4D6, size: 0x8, addend: 0x0, symName: __ZNSt3__16vectorIiNS_9allocatorIiEEE12__move_rangeEPiS4_S4_, symObjAddr: 0x1F564, symBinAddr: 0x100023E68, symSize: 0x464 }
  - { offsetInCU: 0x12874, offset: 0x1C59E, size: 0x8, addend: 0x0, symName: __ZNSt3__114__split_bufferIiRNS_9allocatorIiEEE9push_backEOi, symObjAddr: 0x1F9C8, symBinAddr: 0x1000242CC, symSize: 0xA50 }
  - { offsetInCU: 0x128F2, offset: 0x1C61C, size: 0x8, addend: 0x0, symName: __ZNKSt3__111__wrap_iterIPKiE4baseB7v160006Ev, symObjAddr: 0x20A98, symBinAddr: 0x10002539C, symSize: 0x60 }
  - { offsetInCU: 0x12916, offset: 0x1C640, size: 0x8, addend: 0x0, symName: __ZNKSt3__111__wrap_iterIPiE4baseB7v160006Ev, symObjAddr: 0x20AF8, symBinAddr: 0x1000253FC, symSize: 0x60 }
  - { offsetInCU: 0x12953, offset: 0x1C67D, size: 0x8, addend: 0x0, symName: __ZNKSt3__123__move_backward_trivialclB7v160006IiiLi0EEENS_4pairIPT_PT0_EES4_S4_S6_, symObjAddr: 0x21B08, symBinAddr: 0x10002640C, symSize: 0x230 }
  - { offsetInCU: 0x129BE, offset: 0x1C6E8, size: 0x8, addend: 0x0, symName: __ZNSt3__14pairIPiS1_EC1B7v160006ERKS1_S4_, symObjAddr: 0x225DC, symBinAddr: 0x100026EE0, symSize: 0x3C }
  - { offsetInCU: 0x12A02, offset: 0x1C72C, size: 0x8, addend: 0x0, symName: __ZNSt3__14pairIPiS1_EC2B7v160006ERKS1_S4_, symObjAddr: 0x22618, symBinAddr: 0x100026F1C, symSize: 0x138 }
  - { offsetInCU: 0x12A46, offset: 0x1C770, size: 0x8, addend: 0x0, symName: __ZNSt3__118__unwrap_iter_implIPiLb1EE8__unwrapB7v160006ES1_, symObjAddr: 0x22750, symBinAddr: 0x100027054, symSize: 0x24 }
  - { offsetInCU: 0x12A68, offset: 0x1C792, size: 0x8, addend: 0x0, symName: __ZNSt3__118__unwrap_iter_implIPiLb1EE8__rewrapB7v160006ES1_S1_, symObjAddr: 0x22774, symBinAddr: 0x100027078, symSize: 0x50 }
  - { offsetInCU: 0x12A98, offset: 0x1C7C2, size: 0x8, addend: 0x0, symName: __ZNSt3__114__split_bufferIiRNS_9allocatorIiEEE18__construct_at_endINS_13move_iteratorIPiEEEENS_9enable_ifIXsr27__is_cpp17_forward_iteratorIT_EE5valueEvE4typeESA_SA_, symObjAddr: 0x22A18, symBinAddr: 0x10002731C, symSize: 0x614 }
  - { offsetInCU: 0x12AFF, offset: 0x1C829, size: 0x8, addend: 0x0, symName: __ZNSt3__113move_iteratorIPiEC1B7v160006ES1_, symObjAddr: 0x2302C, symBinAddr: 0x100027930, symSize: 0x34 }
  - { offsetInCU: 0x12B35, offset: 0x1C85F, size: 0x8, addend: 0x0, symName: __ZNKSt3__114__move_trivialclB7v160006IiiLi0EEENS_4pairIPT_PT0_EES4_S4_S6_, symObjAddr: 0x23A6C, symBinAddr: 0x100028370, symSize: 0x230 }
  - { offsetInCU: 0x12BAA, offset: 0x1C8D4, size: 0x8, addend: 0x0, symName: __ZNSt3__114__split_bufferIiRNS_9allocatorIiEEE21_ConstructTransactionC1B7v160006EPPim, symObjAddr: 0x245B0, symBinAddr: 0x100028EB4, symSize: 0x3C }
  - { offsetInCU: 0x12BEE, offset: 0x1C918, size: 0x8, addend: 0x0, symName: __ZNKSt3__113move_iteratorIPiEdeB7v160006Ev, symObjAddr: 0x245EC, symBinAddr: 0x100028EF0, symSize: 0x60 }
  - { offsetInCU: 0x12C12, offset: 0x1C93C, size: 0x8, addend: 0x0, symName: __ZNSt3__113move_iteratorIPiEppB7v160006Ev, symObjAddr: 0x2464C, symBinAddr: 0x100028F50, symSize: 0x68 }
  - { offsetInCU: 0x12C36, offset: 0x1C960, size: 0x8, addend: 0x0, symName: __ZNSt3__114__split_bufferIiRNS_9allocatorIiEEE21_ConstructTransactionD1B7v160006Ev, symObjAddr: 0x246B4, symBinAddr: 0x100028FB8, symSize: 0x2C }
  - { offsetInCU: 0x12C5E, offset: 0x1C988, size: 0x8, addend: 0x0, symName: __ZNKSt3__113move_iteratorIPiE4baseB7v160006Ev, symObjAddr: 0x2499C, symBinAddr: 0x1000292A0, symSize: 0x60 }
  - { offsetInCU: 0x12C82, offset: 0x1C9AC, size: 0x8, addend: 0x0, symName: __ZNSt3__114__split_bufferIiRNS_9allocatorIiEEE21_ConstructTransactionC2B7v160006EPPim, symObjAddr: 0x249FC, symBinAddr: 0x100029300, symSize: 0x184 }
  - { offsetInCU: 0x12CC6, offset: 0x1C9F0, size: 0x8, addend: 0x0, symName: __ZNSt3__114__split_bufferIiRNS_9allocatorIiEEE21_ConstructTransactionD2B7v160006Ev, symObjAddr: 0x24B80, symBinAddr: 0x100029484, symSize: 0xE0 }
  - { offsetInCU: 0x12CEE, offset: 0x1CA18, size: 0x8, addend: 0x0, symName: __ZNSt3__113move_iteratorIPiEC2B7v160006ES1_, symObjAddr: 0x24C60, symBinAddr: 0x100029564, symSize: 0x70 }
  - { offsetInCU: 0x12D24, offset: 0x1CA4E, size: 0x8, addend: 0x0, symName: __ZNSt3__111__wrap_iterIPKiEC2B7v160006IPiEERKNS0_IT_EEPNS_9enable_ifIXsr14is_convertibleIS6_S2_EE5valueEvE4typeE, symObjAddr: 0x24D74, symBinAddr: 0x100029678, symSize: 0x84 }
  - { offsetInCU: 0x12D6D, offset: 0x1CA97, size: 0x8, addend: 0x0, symName: __ZNKSt3__114__split_bufferIPiNS_9allocatorIS1_EEE5emptyB7v160006Ev, symObjAddr: 0x24DF8, symBinAddr: 0x1000296FC, symSize: 0xB4 }
  - { offsetInCU: 0x12D91, offset: 0x1CABB, size: 0x8, addend: 0x0, symName: __ZNSt3__116__deque_iteratorIiPiRiPS1_lLl1024EEC1B7v160006ES3_S1_, symObjAddr: 0x24EAC, symBinAddr: 0x1000297B0, symSize: 0x3C }
  - { offsetInCU: 0x12DD7, offset: 0x1CB01, size: 0x8, addend: 0x0, symName: __ZNSt3__116__deque_iteratorIiPiRiPS1_lLl1024EEC2B7v160006ES3_S1_, symObjAddr: 0x24EE8, symBinAddr: 0x1000297EC, symSize: 0xBC }
  - { offsetInCU: 0x12E1D, offset: 0x1CB47, size: 0x8, addend: 0x0, symName: __ZNSt3__116__deque_iteratorIiPiRiPS1_lLl1024EEppB7v160006Ev, symObjAddr: 0x25064, symBinAddr: 0x100029968, symSize: 0x1F8 }
  - { offsetInCU: 0x12E41, offset: 0x1CB6B, size: 0x8, addend: 0x0, symName: __ZNSt3__111__wrap_iterIPiEppB7v160006Ev, symObjAddr: 0x252A4, symBinAddr: 0x100029BA8, symSize: 0x68 }
  - { offsetInCU: 0x12E65, offset: 0x1CB8F, size: 0x8, addend: 0x0, symName: __ZNKSt3__16vectorIiNS_9allocatorIiEEEixB7v160006Em, symObjAddr: 0x2530C, symBinAddr: 0x100029C10, symSize: 0x6C }
  - { offsetInCU: 0x12E9A, offset: 0x1CBC4, size: 0x8, addend: 0x0, symName: __ZNKSt3__15dequeIiNS_9allocatorIiEEE6__sizeB7v160006Ev, symObjAddr: 0x25378, symBinAddr: 0x100029C7C, symSize: 0x28 }
  - { offsetInCU: 0x12EBE, offset: 0x1CBE8, size: 0x8, addend: 0x0, symName: __ZNKSt3__117__compressed_pairImNS_9allocatorIiEEE5firstB7v160006Ev, symObjAddr: 0x253A0, symBinAddr: 0x100029CA4, symSize: 0x24 }
  - { offsetInCU: 0x12EE2, offset: 0x1CC0C, size: 0x8, addend: 0x0, symName: __ZNKSt3__122__compressed_pair_elemImLi0ELb0EE5__getB7v160006Ev, symObjAddr: 0x253C4, symBinAddr: 0x100029CC8, symSize: 0x14 }
  - { offsetInCU: 0x12F06, offset: 0x1CC30, size: 0x8, addend: 0x0, symName: __ZNSt3__16vectorIiNS_9allocatorIiEEE17__destruct_at_endB7v160006EPi, symObjAddr: 0x253D8, symBinAddr: 0x100029CDC, symSize: 0x94 }
  - { offsetInCU: 0x12F48, offset: 0x1CC72, size: 0x8, addend: 0x0, symName: __ZNSt3__16vectorIiNS_9allocatorIiEEE27__invalidate_iterators_pastB7v160006EPi, symObjAddr: 0x2546C, symBinAddr: 0x100029D70, symSize: 0x14 }
  - { offsetInCU: 0x12F7E, offset: 0x1CCA8, size: 0x8, addend: 0x0, symName: __ZNSt3__16vectorIiNS_9allocatorIiEEE22__construct_one_at_endB7v160006IJRKiEEEvDpOT_, symObjAddr: 0x25480, symBinAddr: 0x100029D84, symSize: 0x380 }
  - { offsetInCU: 0x12FD2, offset: 0x1CCFC, size: 0x8, addend: 0x0, symName: __ZNSt3__114pointer_traitsIPKiE10pointer_toB7v160006ERS1_, symObjAddr: 0x25800, symBinAddr: 0x10002A104, symSize: 0x14 }
  - { offsetInCU: 0x12FF4, offset: 0x1CD1E, size: 0x8, addend: 0x0, symName: __ZNSt3__114__split_bufferIiRNS_9allocatorIiEEE9push_backB7v160006ERKi, symObjAddr: 0x25814, symBinAddr: 0x10002A118, symSize: 0xA50 }
  - { offsetInCU: 0x13072, offset: 0x1CD9C, size: 0x8, addend: 0x0, symName: __ZNSt3__16vectorIiNS_9allocatorIiEEE21__push_back_slow_pathIRKiEEvOT_, symObjAddr: 0x26264, symBinAddr: 0x10002AB68, symSize: 0x3D4 }
  - { offsetInCU: 0x130D5, offset: 0x1CDFF, size: 0x8, addend: 0x0, symName: __ZNKSt3__16vectorIiNS_9allocatorIiEEE6cbeginB7v160006Ev, symObjAddr: 0x26680, symBinAddr: 0x10002AF84, symSize: 0x234 }
  - { offsetInCU: 0x130FA, offset: 0x1CE24, size: 0x8, addend: 0x0, symName: __ZNKSt3__16vectorIiNS_9allocatorIiEEE5beginB7v160006Ev, symObjAddr: 0x268B4, symBinAddr: 0x10002B1B8, symSize: 0x268 }
  - { offsetInCU: 0x13121, offset: 0x1CE4B, size: 0x8, addend: 0x0, symName: __ZNKSt3__16vectorIiNS_9allocatorIiEEE11__make_iterB7v160006EPKi, symObjAddr: 0x26B1C, symBinAddr: 0x10002B420, symSize: 0x200 }
  - { offsetInCU: 0x13156, offset: 0x1CE80, size: 0x8, addend: 0x0, symName: __ZNSt3__111__wrap_iterIPKiEC1B7v160006EPKvS2_, symObjAddr: 0x26D1C, symBinAddr: 0x10002B620, symSize: 0x3C }
  - { offsetInCU: 0x1319A, offset: 0x1CEC4, size: 0x8, addend: 0x0, symName: __ZNSt3__111__wrap_iterIPKiEC2B7v160006EPKvS2_, symObjAddr: 0x26D58, symBinAddr: 0x10002B65C, symSize: 0x74 }
  - { offsetInCU: 0x131DE, offset: 0x1CF08, size: 0x8, addend: 0x0, symName: __ZNSt3__111__wrap_iterIPiEpLB7v160006El, symObjAddr: 0x26E0C, symBinAddr: 0x10002B710, symSize: 0x78 }
  - { offsetInCU: 0x13210, offset: 0x1CF3A, size: 0x8, addend: 0x0, symName: __ZNSt3__18_IterOpsINS_17_ClassicAlgPolicyEE4nextB7v160006INS_11__wrap_iterIPiEEEET_S7_S7_, symObjAddr: 0x28390, symBinAddr: 0x10002CC94, symSize: 0x2D4 }
  - { offsetInCU: 0x13257, offset: 0x1CF81, size: 0x8, addend: 0x0, symName: __ZNKSt3__16__lessIiiEclB7v160006ERKiS3_, symObjAddr: 0x291F0, symBinAddr: 0x10002DAF4, symSize: 0x10C }
  - { offsetInCU: 0x13297, offset: 0x1CFC1, size: 0x8, addend: 0x0, symName: __ZNSt3__18_IterOpsINS_17_ClassicAlgPolicyEE9iter_swapB7v160006IRNS_11__wrap_iterIPiEES7_EEvOT_OT0_, symObjAddr: 0x292FC, symBinAddr: 0x10002DC00, symSize: 0x290 }
  - { offsetInCU: 0x132DB, offset: 0x1D005, size: 0x8, addend: 0x0, symName: __ZNKSt3__111__wrap_iterIPiEplB7v160006El, symObjAddr: 0x2A330, symBinAddr: 0x10002EC34, symSize: 0x20C }
  - { offsetInCU: 0x13321, offset: 0x1D04B, size: 0x8, addend: 0x0, symName: __ZNSt3__18_IterOpsINS_17_ClassicAlgPolicyEE11__iter_moveB7v160006IRNS_11__wrap_iterIPiEEEENS_9enable_ifIXsr12is_referenceIDTdeclsr3stdE7declvalIRT_EEEEE5valueEDTclsr3stdE4movedeclsr3stdE7declvalISA_EEEEE4typeEOS9_, symObjAddr: 0x2A998, symBinAddr: 0x10002F29C, symSize: 0x28 }
  - { offsetInCU: 0x1334C, offset: 0x1D076, size: 0x8, addend: 0x0, symName: __ZNSt3__18_IterOpsINS_17_ClassicAlgPolicyEE25__validate_iter_referenceB7v160006IRNS_11__wrap_iterIPiEEEEvv, symObjAddr: 0x2A9C0, symBinAddr: 0x10002F2C4, symSize: 0x4 }
  - { offsetInCU: 0x13369, offset: 0x1D093, size: 0x8, addend: 0x0, symName: __ZNSt3__111__wrap_iterIPiEmmB7v160006Ev, symObjAddr: 0x2B0AC, symBinAddr: 0x10002F9B0, symSize: 0x68 }
  - { offsetInCU: 0x1338D, offset: 0x1D0B7, size: 0x8, addend: 0x0, symName: __ZNSt3__118__unwrap_iter_implINS_11__wrap_iterIPiEELb1EE8__unwrapB7v160006ES3_, symObjAddr: 0x2BD94, symBinAddr: 0x100030698, symSize: 0x1F0 }
  - { offsetInCU: 0x133B8, offset: 0x1D0E2, size: 0x8, addend: 0x0, symName: __ZNSt3__119__to_address_helperINS_11__wrap_iterIPiEEvE6__callB7v160006ERKS3_, symObjAddr: 0x2BFA8, symBinAddr: 0x1000308AC, symSize: 0x200 }
  - { offsetInCU: 0x133DB, offset: 0x1D105, size: 0x8, addend: 0x0, symName: __ZNSt3__114pointer_traitsINS_11__wrap_iterIPiEEE10to_addressB7v160006ES3_, symObjAddr: 0x2C1A8, symBinAddr: 0x100030AAC, symSize: 0x1F4 }
  - { offsetInCU: 0x13402, offset: 0x1D12C, size: 0x8, addend: 0x0, symName: __ZNSt3__18ios_base9precisionB7v160006El, symObjAddr: 0x2C39C, symBinAddr: 0x100030CA0, symSize: 0xB8 }
  - { offsetInCU: 0x13446, offset: 0x1D170, size: 0x8, addend: 0x0, symName: __ZNKSt3__15dequeIiNS_9allocatorIiEEEixEm, symObjAddr: 0x2C454, symBinAddr: 0x100030D58, symSize: 0xDC }
  - { offsetInCU: 0x1348A, offset: 0x1D1B4, size: 0x8, addend: 0x0, symName: __ZNKSt3__114__split_bufferIPiNS_9allocatorIS1_EEE5beginB7v160006Ev, symObjAddr: 0x2C530, symBinAddr: 0x100030E34, symSize: 0x64 }
  - { offsetInCU: 0x134AE, offset: 0x1D1D8, size: 0x8, addend: 0x0, symName: __ZNSt3__15dequeIiNS_9allocatorIiEEE25__maybe_remove_back_spareB7v160006Eb, symObjAddr: 0x2C594, symBinAddr: 0x100030E98, symSize: 0x10C }
  - { offsetInCU: 0x134E1, offset: 0x1D20B, size: 0x8, addend: 0x0, symName: __ZNKSt3__15dequeIiNS_9allocatorIiEEE19__back_spare_blocksB7v160006Ev, symObjAddr: 0x2C6A0, symBinAddr: 0x100030FA4, symSize: 0x2C }
  - { offsetInCU: 0x13505, offset: 0x1D22F, size: 0x8, addend: 0x0, symName: __ZNSt3__15dequeIiNS_9allocatorIiEEE26__maybe_remove_front_spareB7v160006Eb, symObjAddr: 0x2C6CC, symBinAddr: 0x100030FD0, symSize: 0x150 }
  - { offsetInCU: 0x13538, offset: 0x1D262, size: 0x8, addend: 0x0, symName: __ZNKSt3__15dequeIiNS_9allocatorIiEEE20__front_spare_blocksB7v160006Ev, symObjAddr: 0x2C81C, symBinAddr: 0x100031120, symSize: 0x2C }
  - { offsetInCU: 0x1355C, offset: 0x1D286, size: 0x8, addend: 0x0, symName: __ZNSt3__116__deque_iteratorIiPiRiPS1_lLl1024EEpLB7v160006El, symObjAddr: 0x2C874, symBinAddr: 0x100031178, symSize: 0x390 }
  - { offsetInCU: 0x135AD, offset: 0x1D2D7, size: 0x8, addend: 0x0, symName: __ZNSt3__18_IterOpsINS_17_ClassicAlgPolicyEE4nextB7v160006INS_16__deque_iteratorIiPiRiPS5_lLl1024EEEEET_S9_S9_, symObjAddr: 0x2E6CC, symBinAddr: 0x100032FD0, symSize: 0x2E0 }
  - { offsetInCU: 0x135EA, offset: 0x1D314, size: 0x8, addend: 0x0, symName: __ZNSt3__18_IterOpsINS_17_ClassicAlgPolicyEE9iter_swapB7v160006IRNS_16__deque_iteratorIiPiRiPS5_lLl1024EEES9_EEvOT_OT0_, symObjAddr: 0x2F7B4, symBinAddr: 0x1000340B8, symSize: 0x28C }
  - { offsetInCU: 0x1362E, offset: 0x1D358, size: 0x8, addend: 0x0, symName: __ZNKSt3__116__deque_iteratorIiPiRiPS1_lLl1024EEplB7v160006El, symObjAddr: 0x30820, symBinAddr: 0x100035124, symSize: 0x218 }
  - { offsetInCU: 0x13676, offset: 0x1D3A0, size: 0x8, addend: 0x0, symName: __ZNSt3__18_IterOpsINS_17_ClassicAlgPolicyEE11__iter_moveB7v160006IRNS_16__deque_iteratorIiPiRiPS5_lLl1024EEEEENS_9enable_ifIXsr12is_referenceIDTdeclsr3stdE7declvalIRT_EEEEE5valueEDTclsr3stdE4movedeclsr3stdE7declvalISC_EEEEE4typeEOSB_, symObjAddr: 0x30CC4, symBinAddr: 0x1000355C8, symSize: 0x28 }
  - { offsetInCU: 0x136A1, offset: 0x1D3CB, size: 0x8, addend: 0x0, symName: __ZNSt3__18_IterOpsINS_17_ClassicAlgPolicyEE25__validate_iter_referenceB7v160006IRNS_16__deque_iteratorIiPiRiPS5_lLl1024EEEEEvv, symObjAddr: 0x30CEC, symBinAddr: 0x1000355F0, symSize: 0x4 }
  - { offsetInCU: 0x136C3, offset: 0x1D3ED, size: 0x8, addend: 0x0, symName: __ZNSt3__116_UnwrapAlgPolicyIRNS_6__lessIiiEEE10__get_compB7v160006ES3_, symObjAddr: 0x320EC, symBinAddr: 0x1000369F0, symSize: 0x14 }
  - { offsetInCU: 0x136E5, offset: 0x1D40F, size: 0x8, addend: 0x0, symName: __ZNSt3__118__unwrap_iter_implINS_16__deque_iteratorIiPiRiPS2_lLl1024EEELb0EE8__unwrapB7v160006ES5_, symObjAddr: 0x38770, symBinAddr: 0x10003D074, symSize: 0x274 }
...
